
libitcastsocket.so：     文件格式 elf64-x86-64


Disassembly of section .init:

00000000000012d0 <_init>:
    12d0:	48 83 ec 08          	sub    $0x8,%rsp
    12d4:	e8 47 03 00 00       	callq  1620 <call_gmon_start>
    12d9:	e8 e2 03 00 00       	callq  16c0 <frame_dummy>
    12de:	e8 fd 2c 00 00       	callq  3fe0 <__do_global_ctors_aux>
    12e3:	48 83 c4 08          	add    $0x8,%rsp
    12e7:	c3                   	retq   

Disassembly of section .plt:

00000000000012e8 <printf@plt-0x10>:
    12e8:	ff 35 f2 3e 20 00    	pushq  0x203ef2(%rip)        # 2051e0 <_GLOBAL_OFFSET_TABLE_+0x8>
    12ee:	ff 25 f4 3e 20 00    	jmpq   *0x203ef4(%rip)        # 2051e8 <_GLOBAL_OFFSET_TABLE_+0x10>
    12f4:	0f 1f 40 00          	nopl   0x0(%rax)

00000000000012f8 <printf@plt>:
    12f8:	ff 25 f2 3e 20 00    	jmpq   *0x203ef2(%rip)        # 2051f0 <_GLOBAL_OFFSET_TABLE_+0x18>
    12fe:	68 00 00 00 00       	pushq  $0x0
    1303:	e9 e0 ff ff ff       	jmpq   12e8 <_init+0x18>

0000000000001308 <memset@plt>:
    1308:	ff 25 ea 3e 20 00    	jmpq   *0x203eea(%rip)        # 2051f8 <_GLOBAL_OFFSET_TABLE_+0x20>
    130e:	68 01 00 00 00       	pushq  $0x1
    1313:	e9 d0 ff ff ff       	jmpq   12e8 <_init+0x18>

0000000000001318 <close@plt>:
    1318:	ff 25 e2 3e 20 00    	jmpq   *0x203ee2(%rip)        # 205200 <_GLOBAL_OFFSET_TABLE_+0x28>
    131e:	68 02 00 00 00       	pushq  $0x2
    1323:	e9 c0 ff ff ff       	jmpq   12e8 <_init+0x18>

0000000000001328 <htons@plt>:
    1328:	ff 25 da 3e 20 00    	jmpq   *0x203eda(%rip)        # 205208 <_GLOBAL_OFFSET_TABLE_+0x30>
    132e:	68 03 00 00 00       	pushq  $0x3
    1333:	e9 b0 ff ff ff       	jmpq   12e8 <_init+0x18>

0000000000001338 <select@plt>:
    1338:	ff 25 d2 3e 20 00    	jmpq   *0x203ed2(%rip)        # 205210 <_GLOBAL_OFFSET_TABLE_+0x38>
    133e:	68 04 00 00 00       	pushq  $0x4
    1343:	e9 a0 ff ff ff       	jmpq   12e8 <_init+0x18>

0000000000001348 <sckClient_closeconn@plt>:
    1348:	ff 25 ca 3e 20 00    	jmpq   *0x203eca(%rip)        # 205218 <_GLOBAL_OFFSET_TABLE_+0x40>
    134e:	68 05 00 00 00       	pushq  $0x5
    1353:	e9 90 ff ff ff       	jmpq   12e8 <_init+0x18>

0000000000001358 <read@plt>:
    1358:	ff 25 c2 3e 20 00    	jmpq   *0x203ec2(%rip)        # 205220 <_GLOBAL_OFFSET_TABLE_+0x48>
    135e:	68 06 00 00 00       	pushq  $0x6
    1363:	e9 80 ff ff ff       	jmpq   12e8 <_init+0x18>

0000000000001368 <malloc@plt>:
    1368:	ff 25 ba 3e 20 00    	jmpq   *0x203eba(%rip)        # 205228 <_GLOBAL_OFFSET_TABLE_+0x50>
    136e:	68 07 00 00 00       	pushq  $0x7
    1373:	e9 70 ff ff ff       	jmpq   12e8 <_init+0x18>

0000000000001378 <recv@plt>:
    1378:	ff 25 b2 3e 20 00    	jmpq   *0x203eb2(%rip)        # 205230 <_GLOBAL_OFFSET_TABLE_+0x58>
    137e:	68 08 00 00 00       	pushq  $0x8
    1383:	e9 60 ff ff ff       	jmpq   12e8 <_init+0x18>

0000000000001388 <Socket_Log@plt>:
    1388:	ff 25 aa 3e 20 00    	jmpq   *0x203eaa(%rip)        # 205238 <_GLOBAL_OFFSET_TABLE_+0x60>
    138e:	68 09 00 00 00       	pushq  $0x9
    1393:	e9 50 ff ff ff       	jmpq   12e8 <_init+0x18>

0000000000001398 <setsockopt@plt>:
    1398:	ff 25 a2 3e 20 00    	jmpq   *0x203ea2(%rip)        # 205240 <_GLOBAL_OFFSET_TABLE_+0x68>
    139e:	68 0a 00 00 00       	pushq  $0xa
    13a3:	e9 40 ff ff ff       	jmpq   12e8 <_init+0x18>

00000000000013a8 <pthread_mutex_init@plt>:
    13a8:	ff 25 9a 3e 20 00    	jmpq   *0x203e9a(%rip)        # 205248 <_GLOBAL_OFFSET_TABLE_+0x70>
    13ae:	68 0b 00 00 00       	pushq  $0xb
    13b3:	e9 30 ff ff ff       	jmpq   12e8 <_init+0x18>

00000000000013b8 <readn@plt>:
    13b8:	ff 25 92 3e 20 00    	jmpq   *0x203e92(%rip)        # 205250 <_GLOBAL_OFFSET_TABLE_+0x78>
    13be:	68 0c 00 00 00       	pushq  $0xc
    13c3:	e9 20 ff ff ff       	jmpq   12e8 <_init+0x18>

00000000000013c8 <free@plt>:
    13c8:	ff 25 8a 3e 20 00    	jmpq   *0x203e8a(%rip)        # 205258 <_GLOBAL_OFFSET_TABLE_+0x80>
    13ce:	68 0d 00 00 00       	pushq  $0xd
    13d3:	e9 10 ff ff ff       	jmpq   12e8 <_init+0x18>

00000000000013d8 <sckClient_send@plt>:
    13d8:	ff 25 82 3e 20 00    	jmpq   *0x203e82(%rip)        # 205260 <_GLOBAL_OFFSET_TABLE_+0x88>
    13de:	68 0e 00 00 00       	pushq  $0xe
    13e3:	e9 00 ff ff ff       	jmpq   12e8 <_init+0x18>

00000000000013e8 <vsprintf@plt>:
    13e8:	ff 25 7a 3e 20 00    	jmpq   *0x203e7a(%rip)        # 205268 <_GLOBAL_OFFSET_TABLE_+0x90>
    13ee:	68 0f 00 00 00       	pushq  $0xf
    13f3:	e9 f0 fe ff ff       	jmpq   12e8 <_init+0x18>

00000000000013f8 <read_timeout@plt>:
    13f8:	ff 25 72 3e 20 00    	jmpq   *0x203e72(%rip)        # 205270 <_GLOBAL_OFFSET_TABLE_+0x98>
    13fe:	68 10 00 00 00       	pushq  $0x10
    1403:	e9 e0 fe ff ff       	jmpq   12e8 <_init+0x18>

0000000000001408 <listen@plt>:
    1408:	ff 25 6a 3e 20 00    	jmpq   *0x203e6a(%rip)        # 205278 <_GLOBAL_OFFSET_TABLE_+0xa0>
    140e:	68 11 00 00 00       	pushq  $0x11
    1413:	e9 d0 fe ff ff       	jmpq   12e8 <_init+0x18>

0000000000001418 <__cxa_finalize@plt>:
    1418:	ff 25 62 3e 20 00    	jmpq   *0x203e62(%rip)        # 205280 <_GLOBAL_OFFSET_TABLE_+0xa8>
    141e:	68 12 00 00 00       	pushq  $0x12
    1423:	e9 c0 fe ff ff       	jmpq   12e8 <_init+0x18>

0000000000001428 <sckClient_init@plt>:
    1428:	ff 25 5a 3e 20 00    	jmpq   *0x203e5a(%rip)        # 205288 <_GLOBAL_OFFSET_TABLE_+0xb0>
    142e:	68 13 00 00 00       	pushq  $0x13
    1433:	e9 b0 fe ff ff       	jmpq   12e8 <_init+0x18>

0000000000001438 <sprintf@plt>:
    1438:	ff 25 52 3e 20 00    	jmpq   *0x203e52(%rip)        # 205290 <_GLOBAL_OFFSET_TABLE_+0xb8>
    143e:	68 14 00 00 00       	pushq  $0x14
    1443:	e9 a0 fe ff ff       	jmpq   12e8 <_init+0x18>

0000000000001448 <ntohl@plt>:
    1448:	ff 25 4a 3e 20 00    	jmpq   *0x203e4a(%rip)        # 205298 <_GLOBAL_OFFSET_TABLE_+0xc0>
    144e:	68 15 00 00 00       	pushq  $0x15
    1453:	e9 90 fe ff ff       	jmpq   12e8 <_init+0x18>

0000000000001458 <usleep@plt>:
    1458:	ff 25 42 3e 20 00    	jmpq   *0x203e42(%rip)        # 2052a0 <_GLOBAL_OFFSET_TABLE_+0xc8>
    145e:	68 16 00 00 00       	pushq  $0x16
    1463:	e9 80 fe ff ff       	jmpq   12e8 <_init+0x18>

0000000000001468 <activate_nonblock@plt>:
    1468:	ff 25 3a 3e 20 00    	jmpq   *0x203e3a(%rip)        # 2052a8 <_GLOBAL_OFFSET_TABLE_+0xd0>
    146e:	68 17 00 00 00       	pushq  $0x17
    1473:	e9 70 fe ff ff       	jmpq   12e8 <_init+0x18>

0000000000001478 <getsockopt@plt>:
    1478:	ff 25 32 3e 20 00    	jmpq   *0x203e32(%rip)        # 2052b0 <_GLOBAL_OFFSET_TABLE_+0xd8>
    147e:	68 18 00 00 00       	pushq  $0x18
    1483:	e9 60 fe ff ff       	jmpq   12e8 <_init+0x18>

0000000000001488 <connect@plt>:
    1488:	ff 25 2a 3e 20 00    	jmpq   *0x203e2a(%rip)        # 2052b8 <_GLOBAL_OFFSET_TABLE_+0xe0>
    148e:	68 19 00 00 00       	pushq  $0x19
    1493:	e9 50 fe ff ff       	jmpq   12e8 <_init+0x18>

0000000000001498 <sckClient_connect@plt>:
    1498:	ff 25 22 3e 20 00    	jmpq   *0x203e22(%rip)        # 2052c0 <_GLOBAL_OFFSET_TABLE_+0xe8>
    149e:	68 1a 00 00 00       	pushq  $0x1a
    14a3:	e9 40 fe ff ff       	jmpq   12e8 <_init+0x18>

00000000000014a8 <memcpy@plt>:
    14a8:	ff 25 1a 3e 20 00    	jmpq   *0x203e1a(%rip)        # 2052c8 <_GLOBAL_OFFSET_TABLE_+0xf0>
    14ae:	68 1b 00 00 00       	pushq  $0x1b
    14b3:	e9 30 fe ff ff       	jmpq   12e8 <_init+0x18>

00000000000014b8 <socket@plt>:
    14b8:	ff 25 12 3e 20 00    	jmpq   *0x203e12(%rip)        # 2052d0 <_GLOBAL_OFFSET_TABLE_+0xf8>
    14be:	68 1c 00 00 00       	pushq  $0x1c
    14c3:	e9 20 fe ff ff       	jmpq   12e8 <_init+0x18>

00000000000014c8 <getenv@plt>:
    14c8:	ff 25 0a 3e 20 00    	jmpq   *0x203e0a(%rip)        # 2052d8 <_GLOBAL_OFFSET_TABLE_+0x100>
    14ce:	68 1d 00 00 00       	pushq  $0x1d
    14d3:	e9 10 fe ff ff       	jmpq   12e8 <_init+0x18>

00000000000014d8 <__errno_location@plt>:
    14d8:	ff 25 02 3e 20 00    	jmpq   *0x203e02(%rip)        # 2052e0 <_GLOBAL_OFFSET_TABLE_+0x108>
    14de:	68 1e 00 00 00       	pushq  $0x1e
    14e3:	e9 00 fe ff ff       	jmpq   12e8 <_init+0x18>

00000000000014e8 <write_timeout@plt>:
    14e8:	ff 25 fa 3d 20 00    	jmpq   *0x203dfa(%rip)        # 2052e8 <_GLOBAL_OFFSET_TABLE_+0x110>
    14ee:	68 1f 00 00 00       	pushq  $0x1f
    14f3:	e9 f0 fd ff ff       	jmpq   12e8 <_init+0x18>

00000000000014f8 <strcpy@plt>:
    14f8:	ff 25 f2 3d 20 00    	jmpq   *0x203df2(%rip)        # 2052f0 <_GLOBAL_OFFSET_TABLE_+0x118>
    14fe:	68 20 00 00 00       	pushq  $0x20
    1503:	e9 e0 fd ff ff       	jmpq   12e8 <_init+0x18>

0000000000001508 <sckClient_rev@plt>:
    1508:	ff 25 ea 3d 20 00    	jmpq   *0x203dea(%rip)        # 2052f8 <_GLOBAL_OFFSET_TABLE_+0x120>
    150e:	68 21 00 00 00       	pushq  $0x21
    1513:	e9 d0 fd ff ff       	jmpq   12e8 <_init+0x18>

0000000000001518 <bind@plt>:
    1518:	ff 25 e2 3d 20 00    	jmpq   *0x203de2(%rip)        # 205300 <_GLOBAL_OFFSET_TABLE_+0x128>
    151e:	68 22 00 00 00       	pushq  $0x22
    1523:	e9 c0 fd ff ff       	jmpq   12e8 <_init+0x18>

0000000000001528 <htonl@plt>:
    1528:	ff 25 da 3d 20 00    	jmpq   *0x203dda(%rip)        # 205308 <_GLOBAL_OFFSET_TABLE_+0x130>
    152e:	68 23 00 00 00       	pushq  $0x23
    1533:	e9 b0 fd ff ff       	jmpq   12e8 <_init+0x18>

0000000000001538 <writen@plt>:
    1538:	ff 25 d2 3d 20 00    	jmpq   *0x203dd2(%rip)        # 205310 <_GLOBAL_OFFSET_TABLE_+0x138>
    153e:	68 24 00 00 00       	pushq  $0x24
    1543:	e9 a0 fd ff ff       	jmpq   12e8 <_init+0x18>

0000000000001548 <pthread_mutex_lock@plt>:
    1548:	ff 25 ca 3d 20 00    	jmpq   *0x203dca(%rip)        # 205318 <_GLOBAL_OFFSET_TABLE_+0x140>
    154e:	68 25 00 00 00       	pushq  $0x25
    1553:	e9 90 fd ff ff       	jmpq   12e8 <_init+0x18>

0000000000001558 <localtime@plt>:
    1558:	ff 25 c2 3d 20 00    	jmpq   *0x203dc2(%rip)        # 205320 <_GLOBAL_OFFSET_TABLE_+0x148>
    155e:	68 26 00 00 00       	pushq  $0x26
    1563:	e9 80 fd ff ff       	jmpq   12e8 <_init+0x18>

0000000000001568 <write@plt>:
    1568:	ff 25 ba 3d 20 00    	jmpq   *0x203dba(%rip)        # 205328 <_GLOBAL_OFFSET_TABLE_+0x150>
    156e:	68 27 00 00 00       	pushq  $0x27
    1573:	e9 70 fd ff ff       	jmpq   12e8 <_init+0x18>

0000000000001578 <accept_timeout@plt>:
    1578:	ff 25 b2 3d 20 00    	jmpq   *0x203db2(%rip)        # 205330 <_GLOBAL_OFFSET_TABLE_+0x158>
    157e:	68 28 00 00 00       	pushq  $0x28
    1583:	e9 60 fd ff ff       	jmpq   12e8 <_init+0x18>

0000000000001588 <strftime@plt>:
    1588:	ff 25 aa 3d 20 00    	jmpq   *0x203daa(%rip)        # 205338 <_GLOBAL_OFFSET_TABLE_+0x160>
    158e:	68 29 00 00 00       	pushq  $0x29
    1593:	e9 50 fd ff ff       	jmpq   12e8 <_init+0x18>

0000000000001598 <accept@plt>:
    1598:	ff 25 a2 3d 20 00    	jmpq   *0x203da2(%rip)        # 205340 <_GLOBAL_OFFSET_TABLE_+0x168>
    159e:	68 2a 00 00 00       	pushq  $0x2a
    15a3:	e9 40 fd ff ff       	jmpq   12e8 <_init+0x18>

00000000000015a8 <pthread_mutex_unlock@plt>:
    15a8:	ff 25 9a 3d 20 00    	jmpq   *0x203d9a(%rip)        # 205348 <_GLOBAL_OFFSET_TABLE_+0x170>
    15ae:	68 2b 00 00 00       	pushq  $0x2b
    15b3:	e9 30 fd ff ff       	jmpq   12e8 <_init+0x18>

00000000000015b8 <fcntl@plt>:
    15b8:	ff 25 92 3d 20 00    	jmpq   *0x203d92(%rip)        # 205350 <_GLOBAL_OFFSET_TABLE_+0x178>
    15be:	68 2c 00 00 00       	pushq  $0x2c
    15c3:	e9 20 fd ff ff       	jmpq   12e8 <_init+0x18>

00000000000015c8 <deactivate_nonblock@plt>:
    15c8:	ff 25 8a 3d 20 00    	jmpq   *0x203d8a(%rip)        # 205358 <_GLOBAL_OFFSET_TABLE_+0x180>
    15ce:	68 2d 00 00 00       	pushq  $0x2d
    15d3:	e9 10 fd ff ff       	jmpq   12e8 <_init+0x18>

00000000000015d8 <open@plt>:
    15d8:	ff 25 82 3d 20 00    	jmpq   *0x203d82(%rip)        # 205360 <_GLOBAL_OFFSET_TABLE_+0x188>
    15de:	68 2e 00 00 00       	pushq  $0x2e
    15e3:	e9 00 fd ff ff       	jmpq   12e8 <_init+0x18>

00000000000015e8 <time@plt>:
    15e8:	ff 25 7a 3d 20 00    	jmpq   *0x203d7a(%rip)        # 205368 <_GLOBAL_OFFSET_TABLE_+0x190>
    15ee:	68 2f 00 00 00       	pushq  $0x2f
    15f3:	e9 f0 fc ff ff       	jmpq   12e8 <_init+0x18>

00000000000015f8 <inet_addr@plt>:
    15f8:	ff 25 72 3d 20 00    	jmpq   *0x203d72(%rip)        # 205370 <_GLOBAL_OFFSET_TABLE_+0x198>
    15fe:	68 30 00 00 00       	pushq  $0x30
    1603:	e9 e0 fc ff ff       	jmpq   12e8 <_init+0x18>

0000000000001608 <sckClient_destroy@plt>:
    1608:	ff 25 6a 3d 20 00    	jmpq   *0x203d6a(%rip)        # 205378 <_GLOBAL_OFFSET_TABLE_+0x1a0>
    160e:	68 31 00 00 00       	pushq  $0x31
    1613:	e9 d0 fc ff ff       	jmpq   12e8 <_init+0x18>

Disassembly of section .text:

0000000000001620 <call_gmon_start>:
    1620:	48 83 ec 08          	sub    $0x8,%rsp
    1624:	48 8b 05 85 3b 20 00 	mov    0x203b85(%rip),%rax        # 2051b0 <_DYNAMIC+0x180>
    162b:	48 85 c0             	test   %rax,%rax
    162e:	74 02                	je     1632 <call_gmon_start+0x12>
    1630:	ff d0                	callq  *%rax
    1632:	48 83 c4 08          	add    $0x8,%rsp
    1636:	c3                   	retq   
    1637:	90                   	nop
    1638:	90                   	nop
    1639:	90                   	nop
    163a:	90                   	nop
    163b:	90                   	nop
    163c:	90                   	nop
    163d:	90                   	nop
    163e:	90                   	nop
    163f:	90                   	nop

0000000000001640 <__do_global_dtors_aux>:
    1640:	55                   	push   %rbp
    1641:	80 3d 90 3d 20 00 00 	cmpb   $0x0,0x203d90(%rip)        # 2053d8 <completed.6349>
    1648:	48 89 e5             	mov    %rsp,%rbp
    164b:	41 54                	push   %r12
    164d:	53                   	push   %rbx
    164e:	75 62                	jne    16b2 <__do_global_dtors_aux+0x72>
    1650:	48 83 3d 68 3b 20 00 	cmpq   $0x0,0x203b68(%rip)        # 2051c0 <_DYNAMIC+0x190>
    1657:	00 
    1658:	74 0c                	je     1666 <__do_global_dtors_aux+0x26>
    165a:	48 8d 3d c7 39 20 00 	lea    0x2039c7(%rip),%rdi        # 205028 <__dso_handle>
    1661:	e8 b2 fd ff ff       	callq  1418 <__cxa_finalize@plt>
    1666:	48 8d 1d ab 39 20 00 	lea    0x2039ab(%rip),%rbx        # 205018 <__DTOR_END__>
    166d:	4c 8d 25 9c 39 20 00 	lea    0x20399c(%rip),%r12        # 205010 <__DTOR_LIST__>
    1674:	48 8b 05 65 3d 20 00 	mov    0x203d65(%rip),%rax        # 2053e0 <dtor_idx.6351>
    167b:	4c 29 e3             	sub    %r12,%rbx
    167e:	48 c1 fb 03          	sar    $0x3,%rbx
    1682:	48 83 eb 01          	sub    $0x1,%rbx
    1686:	48 39 d8             	cmp    %rbx,%rax
    1689:	73 20                	jae    16ab <__do_global_dtors_aux+0x6b>
    168b:	0f 1f 44 00 00       	nopl   0x0(%rax,%rax,1)
    1690:	48 83 c0 01          	add    $0x1,%rax
    1694:	48 89 05 45 3d 20 00 	mov    %rax,0x203d45(%rip)        # 2053e0 <dtor_idx.6351>
    169b:	41 ff 14 c4          	callq  *(%r12,%rax,8)
    169f:	48 8b 05 3a 3d 20 00 	mov    0x203d3a(%rip),%rax        # 2053e0 <dtor_idx.6351>
    16a6:	48 39 d8             	cmp    %rbx,%rax
    16a9:	72 e5                	jb     1690 <__do_global_dtors_aux+0x50>
    16ab:	c6 05 26 3d 20 00 01 	movb   $0x1,0x203d26(%rip)        # 2053d8 <completed.6349>
    16b2:	5b                   	pop    %rbx
    16b3:	41 5c                	pop    %r12
    16b5:	c9                   	leaveq 
    16b6:	c3                   	retq   
    16b7:	66 0f 1f 84 00 00 00 	nopw   0x0(%rax,%rax,1)
    16be:	00 00 

00000000000016c0 <frame_dummy>:
    16c0:	48 83 3d 58 39 20 00 	cmpq   $0x0,0x203958(%rip)        # 205020 <__JCR_END__>
    16c7:	00 
    16c8:	55                   	push   %rbp
    16c9:	48 89 e5             	mov    %rsp,%rbp
    16cc:	74 1a                	je     16e8 <frame_dummy+0x28>
    16ce:	48 8b 05 e3 3a 20 00 	mov    0x203ae3(%rip),%rax        # 2051b8 <_DYNAMIC+0x188>
    16d5:	48 85 c0             	test   %rax,%rax
    16d8:	74 0e                	je     16e8 <frame_dummy+0x28>
    16da:	48 8d 3d 3f 39 20 00 	lea    0x20393f(%rip),%rdi        # 205020 <__JCR_END__>
    16e1:	c9                   	leaveq 
    16e2:	ff e0                	jmpq   *%rax
    16e4:	0f 1f 40 00          	nopl   0x0(%rax)
    16e8:	c9                   	leaveq 
    16e9:	c3                   	retq   
    16ea:	90                   	nop
    16eb:	90                   	nop

00000000000016ec <readn>:
    16ec:	55                   	push   %rbp
    16ed:	48 89 e5             	mov    %rsp,%rbp
    16f0:	48 83 ec 40          	sub    $0x40,%rsp
    16f4:	89 7d dc             	mov    %edi,-0x24(%rbp)
    16f7:	48 89 75 d0          	mov    %rsi,-0x30(%rbp)
    16fb:	48 89 55 c8          	mov    %rdx,-0x38(%rbp)
    16ff:	48 8b 45 c8          	mov    -0x38(%rbp),%rax
    1703:	48 89 45 e8          	mov    %rax,-0x18(%rbp)
    1707:	48 8b 45 d0          	mov    -0x30(%rbp),%rax
    170b:	48 89 45 f8          	mov    %rax,-0x8(%rbp)
    170f:	eb 62                	jmp    1773 <readn+0x87>
    1711:	48 8b 55 e8          	mov    -0x18(%rbp),%rdx
    1715:	48 8b 4d f8          	mov    -0x8(%rbp),%rcx
    1719:	8b 45 dc             	mov    -0x24(%rbp),%eax
    171c:	48 89 ce             	mov    %rcx,%rsi
    171f:	89 c7                	mov    %eax,%edi
    1721:	e8 32 fc ff ff       	callq  1358 <read@plt>
    1726:	48 89 45 f0          	mov    %rax,-0x10(%rbp)
    172a:	48 83 7d f0 00       	cmpq   $0x0,-0x10(%rbp)
    172f:	79 15                	jns    1746 <readn+0x5a>
    1731:	e8 a2 fd ff ff       	callq  14d8 <__errno_location@plt>
    1736:	8b 00                	mov    (%rax),%eax
    1738:	83 f8 04             	cmp    $0x4,%eax
    173b:	74 35                	je     1772 <readn+0x86>
    173d:	48 c7 c0 ff ff ff ff 	mov    $0xffffffffffffffff,%rax
    1744:	eb 38                	jmp    177e <readn+0x92>
    1746:	48 83 7d f0 00       	cmpq   $0x0,-0x10(%rbp)
    174b:	75 13                	jne    1760 <readn+0x74>
    174d:	48 8b 45 e8          	mov    -0x18(%rbp),%rax
    1751:	48 8b 55 c8          	mov    -0x38(%rbp),%rdx
    1755:	48 89 d1             	mov    %rdx,%rcx
    1758:	48 29 c1             	sub    %rax,%rcx
    175b:	48 89 c8             	mov    %rcx,%rax
    175e:	eb 1e                	jmp    177e <readn+0x92>
    1760:	48 8b 45 f0          	mov    -0x10(%rbp),%rax
    1764:	48 01 45 f8          	add    %rax,-0x8(%rbp)
    1768:	48 8b 45 f0          	mov    -0x10(%rbp),%rax
    176c:	48 29 45 e8          	sub    %rax,-0x18(%rbp)
    1770:	eb 01                	jmp    1773 <readn+0x87>
    1772:	90                   	nop
    1773:	48 83 7d e8 00       	cmpq   $0x0,-0x18(%rbp)
    1778:	75 97                	jne    1711 <readn+0x25>
    177a:	48 8b 45 c8          	mov    -0x38(%rbp),%rax
    177e:	c9                   	leaveq 
    177f:	c3                   	retq   

0000000000001780 <writen>:
    1780:	55                   	push   %rbp
    1781:	48 89 e5             	mov    %rsp,%rbp
    1784:	48 83 ec 40          	sub    $0x40,%rsp
    1788:	89 7d dc             	mov    %edi,-0x24(%rbp)
    178b:	48 89 75 d0          	mov    %rsi,-0x30(%rbp)
    178f:	48 89 55 c8          	mov    %rdx,-0x38(%rbp)
    1793:	48 8b 45 c8          	mov    -0x38(%rbp),%rax
    1797:	48 89 45 e8          	mov    %rax,-0x18(%rbp)
    179b:	48 8b 45 d0          	mov    -0x30(%rbp),%rax
    179f:	48 89 45 f8          	mov    %rax,-0x8(%rbp)
    17a3:	eb 52                	jmp    17f7 <writen+0x77>
    17a5:	48 8b 55 e8          	mov    -0x18(%rbp),%rdx
    17a9:	48 8b 4d f8          	mov    -0x8(%rbp),%rcx
    17ad:	8b 45 dc             	mov    -0x24(%rbp),%eax
    17b0:	48 89 ce             	mov    %rcx,%rsi
    17b3:	89 c7                	mov    %eax,%edi
    17b5:	e8 ae fd ff ff       	callq  1568 <write@plt>
    17ba:	48 89 45 f0          	mov    %rax,-0x10(%rbp)
    17be:	48 83 7d f0 00       	cmpq   $0x0,-0x10(%rbp)
    17c3:	79 15                	jns    17da <writen+0x5a>
    17c5:	e8 0e fd ff ff       	callq  14d8 <__errno_location@plt>
    17ca:	8b 00                	mov    (%rax),%eax
    17cc:	83 f8 04             	cmp    $0x4,%eax
    17cf:	74 22                	je     17f3 <writen+0x73>
    17d1:	48 c7 c0 ff ff ff ff 	mov    $0xffffffffffffffff,%rax
    17d8:	eb 28                	jmp    1802 <writen+0x82>
    17da:	48 83 7d f0 00       	cmpq   $0x0,-0x10(%rbp)
    17df:	74 15                	je     17f6 <writen+0x76>
    17e1:	48 8b 45 f0          	mov    -0x10(%rbp),%rax
    17e5:	48 01 45 f8          	add    %rax,-0x8(%rbp)
    17e9:	48 8b 45 f0          	mov    -0x10(%rbp),%rax
    17ed:	48 29 45 e8          	sub    %rax,-0x18(%rbp)
    17f1:	eb 04                	jmp    17f7 <writen+0x77>
    17f3:	90                   	nop
    17f4:	eb 01                	jmp    17f7 <writen+0x77>
    17f6:	90                   	nop
    17f7:	48 83 7d e8 00       	cmpq   $0x0,-0x18(%rbp)
    17fc:	75 a7                	jne    17a5 <writen+0x25>
    17fe:	48 8b 45 c8          	mov    -0x38(%rbp),%rax
    1802:	c9                   	leaveq 
    1803:	c3                   	retq   

0000000000001804 <recv_peek>:
    1804:	55                   	push   %rbp
    1805:	48 89 e5             	mov    %rsp,%rbp
    1808:	53                   	push   %rbx
    1809:	48 83 ec 38          	sub    $0x38,%rsp
    180d:	89 7d dc             	mov    %edi,-0x24(%rbp)
    1810:	48 89 75 d0          	mov    %rsi,-0x30(%rbp)
    1814:	48 89 55 c8          	mov    %rdx,-0x38(%rbp)
    1818:	eb 01                	jmp    181b <recv_peek+0x17>
    181a:	90                   	nop
    181b:	48 8b 55 c8          	mov    -0x38(%rbp),%rdx
    181f:	48 8b 5d d0          	mov    -0x30(%rbp),%rbx
    1823:	8b 45 dc             	mov    -0x24(%rbp),%eax
    1826:	b9 02 00 00 00       	mov    $0x2,%ecx
    182b:	48 89 de             	mov    %rbx,%rsi
    182e:	89 c7                	mov    %eax,%edi
    1830:	e8 43 fb ff ff       	callq  1378 <recv@plt>
    1835:	89 45 ec             	mov    %eax,-0x14(%rbp)
    1838:	83 7d ec ff          	cmpl   $0xffffffff,-0x14(%rbp)
    183c:	75 0c                	jne    184a <recv_peek+0x46>
    183e:	e8 95 fc ff ff       	callq  14d8 <__errno_location@plt>
    1843:	8b 00                	mov    (%rax),%eax
    1845:	83 f8 04             	cmp    $0x4,%eax
    1848:	74 d0                	je     181a <recv_peek+0x16>
    184a:	8b 45 ec             	mov    -0x14(%rbp),%eax
    184d:	48 98                	cltq   
    184f:	48 83 c4 38          	add    $0x38,%rsp
    1853:	5b                   	pop    %rbx
    1854:	c9                   	leaveq 
    1855:	c3                   	retq   

0000000000001856 <activate_nonblock>:
    1856:	55                   	push   %rbp
    1857:	48 89 e5             	mov    %rsp,%rbp
    185a:	48 83 ec 20          	sub    $0x20,%rsp
    185e:	89 7d ec             	mov    %edi,-0x14(%rbp)
    1861:	c7 45 f8 00 00 00 00 	movl   $0x0,-0x8(%rbp)
    1868:	8b 45 ec             	mov    -0x14(%rbp),%eax
    186b:	be 03 00 00 00       	mov    $0x3,%esi
    1870:	89 c7                	mov    %eax,%edi
    1872:	b8 00 00 00 00       	mov    $0x0,%eax
    1877:	e8 3c fd ff ff       	callq  15b8 <fcntl@plt>
    187c:	89 45 fc             	mov    %eax,-0x4(%rbp)
    187f:	83 7d fc ff          	cmpl   $0xffffffff,-0x4(%rbp)
    1883:	75 39                	jne    18be <activate_nonblock+0x68>
    1885:	8b 45 fc             	mov    -0x4(%rbp),%eax
    1888:	89 45 f8             	mov    %eax,-0x8(%rbp)
    188b:	48 8b 05 3e 39 20 00 	mov    0x20393e(%rip),%rax        # 2051d0 <_DYNAMIC+0x1a0>
    1892:	8b 40 10             	mov    0x10(%rax),%eax
    1895:	8b 55 f8             	mov    -0x8(%rbp),%edx
    1898:	4c 8d 05 89 27 00 00 	lea    0x2789(%rip),%r8        # 4028 <_fini+0x10>
    189f:	89 d1                	mov    %edx,%ecx
    18a1:	89 c2                	mov    %eax,%edx
    18a3:	be 6d 00 00 00       	mov    $0x6d,%esi
    18a8:	48 8d 3d 96 27 00 00 	lea    0x2796(%rip),%rdi        # 4045 <_fini+0x2d>
    18af:	b8 00 00 00 00       	mov    $0x0,%eax
    18b4:	e8 cf fa ff ff       	callq  1388 <Socket_Log@plt>
    18b9:	8b 45 f8             	mov    -0x8(%rbp),%eax
    18bc:	eb 5d                	jmp    191b <activate_nonblock+0xc5>
    18be:	81 4d fc 00 08 00 00 	orl    $0x800,-0x4(%rbp)
    18c5:	8b 55 fc             	mov    -0x4(%rbp),%edx
    18c8:	8b 45 ec             	mov    -0x14(%rbp),%eax
    18cb:	be 04 00 00 00       	mov    $0x4,%esi
    18d0:	89 c7                	mov    %eax,%edi
    18d2:	b8 00 00 00 00       	mov    $0x0,%eax
    18d7:	e8 dc fc ff ff       	callq  15b8 <fcntl@plt>
    18dc:	89 45 f8             	mov    %eax,-0x8(%rbp)
    18df:	83 7d f8 ff          	cmpl   $0xffffffff,-0x8(%rbp)
    18e3:	75 33                	jne    1918 <activate_nonblock+0xc2>
    18e5:	48 8b 05 e4 38 20 00 	mov    0x2038e4(%rip),%rax        # 2051d0 <_DYNAMIC+0x1a0>
    18ec:	8b 40 10             	mov    0x10(%rax),%eax
    18ef:	8b 55 f8             	mov    -0x8(%rbp),%edx
    18f2:	4c 8d 05 2f 27 00 00 	lea    0x272f(%rip),%r8        # 4028 <_fini+0x10>
    18f9:	89 d1                	mov    %edx,%ecx
    18fb:	89 c2                	mov    %eax,%edx
    18fd:	be 75 00 00 00       	mov    $0x75,%esi
    1902:	48 8d 3d 3c 27 00 00 	lea    0x273c(%rip),%rdi        # 4045 <_fini+0x2d>
    1909:	b8 00 00 00 00       	mov    $0x0,%eax
    190e:	e8 75 fa ff ff       	callq  1388 <Socket_Log@plt>
    1913:	8b 45 f8             	mov    -0x8(%rbp),%eax
    1916:	eb 03                	jmp    191b <activate_nonblock+0xc5>
    1918:	8b 45 f8             	mov    -0x8(%rbp),%eax
    191b:	c9                   	leaveq 
    191c:	c3                   	retq   

000000000000191d <deactivate_nonblock>:
    191d:	55                   	push   %rbp
    191e:	48 89 e5             	mov    %rsp,%rbp
    1921:	48 83 ec 20          	sub    $0x20,%rsp
    1925:	89 7d ec             	mov    %edi,-0x14(%rbp)
    1928:	c7 45 f8 00 00 00 00 	movl   $0x0,-0x8(%rbp)
    192f:	8b 45 ec             	mov    -0x14(%rbp),%eax
    1932:	be 03 00 00 00       	mov    $0x3,%esi
    1937:	89 c7                	mov    %eax,%edi
    1939:	b8 00 00 00 00       	mov    $0x0,%eax
    193e:	e8 75 fc ff ff       	callq  15b8 <fcntl@plt>
    1943:	89 45 fc             	mov    %eax,-0x4(%rbp)
    1946:	83 7d fc ff          	cmpl   $0xffffffff,-0x4(%rbp)
    194a:	75 39                	jne    1985 <deactivate_nonblock+0x68>
    194c:	8b 45 fc             	mov    -0x4(%rbp),%eax
    194f:	89 45 f8             	mov    %eax,-0x8(%rbp)
    1952:	48 8b 05 77 38 20 00 	mov    0x203877(%rip),%rax        # 2051d0 <_DYNAMIC+0x1a0>
    1959:	8b 40 10             	mov    0x10(%rax),%eax
    195c:	8b 55 f8             	mov    -0x8(%rbp),%edx
    195f:	4c 8d 05 f2 26 00 00 	lea    0x26f2(%rip),%r8        # 4058 <_fini+0x40>
    1966:	89 d1                	mov    %edx,%ecx
    1968:	89 c2                	mov    %eax,%edx
    196a:	be 86 00 00 00       	mov    $0x86,%esi
    196f:	48 8d 3d cf 26 00 00 	lea    0x26cf(%rip),%rdi        # 4045 <_fini+0x2d>
    1976:	b8 00 00 00 00       	mov    $0x0,%eax
    197b:	e8 08 fa ff ff       	callq  1388 <Socket_Log@plt>
    1980:	8b 45 f8             	mov    -0x8(%rbp),%eax
    1983:	eb 5d                	jmp    19e2 <deactivate_nonblock+0xc5>
    1985:	81 65 fc ff f7 ff ff 	andl   $0xfffff7ff,-0x4(%rbp)
    198c:	8b 55 fc             	mov    -0x4(%rbp),%edx
    198f:	8b 45 ec             	mov    -0x14(%rbp),%eax
    1992:	be 04 00 00 00       	mov    $0x4,%esi
    1997:	89 c7                	mov    %eax,%edi
    1999:	b8 00 00 00 00       	mov    $0x0,%eax
    199e:	e8 15 fc ff ff       	callq  15b8 <fcntl@plt>
    19a3:	89 45 f8             	mov    %eax,-0x8(%rbp)
    19a6:	83 7d f8 ff          	cmpl   $0xffffffff,-0x8(%rbp)
    19aa:	75 33                	jne    19df <deactivate_nonblock+0xc2>
    19ac:	48 8b 05 1d 38 20 00 	mov    0x20381d(%rip),%rax        # 2051d0 <_DYNAMIC+0x1a0>
    19b3:	8b 40 10             	mov    0x10(%rax),%eax
    19b6:	8b 55 f8             	mov    -0x8(%rbp),%edx
    19b9:	4c 8d 05 98 26 00 00 	lea    0x2698(%rip),%r8        # 4058 <_fini+0x40>
    19c0:	89 d1                	mov    %edx,%ecx
    19c2:	89 c2                	mov    %eax,%edx
    19c4:	be 8e 00 00 00       	mov    $0x8e,%esi
    19c9:	48 8d 3d 75 26 00 00 	lea    0x2675(%rip),%rdi        # 4045 <_fini+0x2d>
    19d0:	b8 00 00 00 00       	mov    $0x0,%eax
    19d5:	e8 ae f9 ff ff       	callq  1388 <Socket_Log@plt>
    19da:	8b 45 f8             	mov    -0x8(%rbp),%eax
    19dd:	eb 03                	jmp    19e2 <deactivate_nonblock+0xc5>
    19df:	8b 45 f8             	mov    -0x8(%rbp),%eax
    19e2:	c9                   	leaveq 
    19e3:	c3                   	retq   

00000000000019e4 <connect_timeout>:
    19e4:	55                   	push   %rbp
    19e5:	48 89 e5             	mov    %rsp,%rbp
    19e8:	53                   	push   %rbx
    19e9:	48 81 ec e8 00 00 00 	sub    $0xe8,%rsp
    19f0:	89 bd 2c ff ff ff    	mov    %edi,-0xd4(%rbp)
    19f6:	48 89 b5 20 ff ff ff 	mov    %rsi,-0xe0(%rbp)
    19fd:	89 95 1c ff ff ff    	mov    %edx,-0xe4(%rbp)
    1a03:	c7 45 e0 10 00 00 00 	movl   $0x10,-0x20(%rbp)
    1a0a:	83 bd 1c ff ff ff 00 	cmpl   $0x0,-0xe4(%rbp)
    1a11:	74 0d                	je     1a20 <connect_timeout+0x3c>
    1a13:	8b 85 2c ff ff ff    	mov    -0xd4(%rbp),%eax
    1a19:	89 c7                	mov    %eax,%edi
    1a1b:	e8 48 fa ff ff       	callq  1468 <activate_nonblock@plt>
    1a20:	48 8b 8d 20 ff ff ff 	mov    -0xe0(%rbp),%rcx
    1a27:	8b 55 e0             	mov    -0x20(%rbp),%edx
    1a2a:	8b 85 2c ff ff ff    	mov    -0xd4(%rbp),%eax
    1a30:	48 89 ce             	mov    %rcx,%rsi
    1a33:	89 c7                	mov    %eax,%edi
    1a35:	e8 4e fa ff ff       	callq  1488 <connect@plt>
    1a3a:	89 45 dc             	mov    %eax,-0x24(%rbp)
    1a3d:	83 7d dc 00          	cmpl   $0x0,-0x24(%rbp)
    1a41:	0f 89 64 01 00 00    	jns    1bab <connect_timeout+0x1c7>
    1a47:	e8 8c fa ff ff       	callq  14d8 <__errno_location@plt>
    1a4c:	8b 00                	mov    (%rax),%eax
    1a4e:	83 f8 73             	cmp    $0x73,%eax
    1a51:	0f 85 54 01 00 00    	jne    1bab <connect_timeout+0x1c7>
    1a57:	b8 00 00 00 00       	mov    $0x0,%eax
    1a5c:	ba 10 00 00 00       	mov    $0x10,%edx
    1a61:	48 8d 9d 30 ff ff ff 	lea    -0xd0(%rbp),%rbx
    1a68:	48 89 d1             	mov    %rdx,%rcx
    1a6b:	48 89 df             	mov    %rbx,%rdi
    1a6e:	fc                   	cld    
    1a6f:	f3 48 ab             	rep stos %rax,%es:(%rdi)
    1a72:	89 f8                	mov    %edi,%eax
    1a74:	89 ca                	mov    %ecx,%edx
    1a76:	89 55 e4             	mov    %edx,-0x1c(%rbp)
    1a79:	89 45 e8             	mov    %eax,-0x18(%rbp)
    1a7c:	8b 85 2c ff ff ff    	mov    -0xd4(%rbp),%eax
    1a82:	8d 50 3f             	lea    0x3f(%rax),%edx
    1a85:	85 c0                	test   %eax,%eax
    1a87:	0f 48 c2             	cmovs  %edx,%eax
    1a8a:	c1 f8 06             	sar    $0x6,%eax
    1a8d:	89 c3                	mov    %eax,%ebx
    1a8f:	48 98                	cltq   
    1a91:	48 8b b4 c5 30 ff ff 	mov    -0xd0(%rbp,%rax,8),%rsi
    1a98:	ff 
    1a99:	8b 85 2c ff ff ff    	mov    -0xd4(%rbp),%eax
    1a9f:	89 c2                	mov    %eax,%edx
    1aa1:	c1 fa 1f             	sar    $0x1f,%edx
    1aa4:	c1 ea 1a             	shr    $0x1a,%edx
    1aa7:	01 d0                	add    %edx,%eax
    1aa9:	83 e0 3f             	and    $0x3f,%eax
    1aac:	29 d0                	sub    %edx,%eax
    1aae:	ba 01 00 00 00       	mov    $0x1,%edx
    1ab3:	48 89 d7             	mov    %rdx,%rdi
    1ab6:	89 c1                	mov    %eax,%ecx
    1ab8:	48 d3 e7             	shl    %cl,%rdi
    1abb:	48 89 f8             	mov    %rdi,%rax
    1abe:	48 89 f2             	mov    %rsi,%rdx
    1ac1:	48 09 c2             	or     %rax,%rdx
    1ac4:	48 63 c3             	movslq %ebx,%rax
    1ac7:	48 89 94 c5 30 ff ff 	mov    %rdx,-0xd0(%rbp,%rax,8)
    1ace:	ff 
    1acf:	8b 85 1c ff ff ff    	mov    -0xe4(%rbp),%eax
    1ad5:	48 89 45 c0          	mov    %rax,-0x40(%rbp)
    1ad9:	48 c7 45 c8 00 00 00 	movq   $0x0,-0x38(%rbp)
    1ae0:	00 
    1ae1:	8b 85 2c ff ff ff    	mov    -0xd4(%rbp),%eax
    1ae7:	8d 58 01             	lea    0x1(%rax),%ebx
    1aea:	48 8d 55 c0          	lea    -0x40(%rbp),%rdx
    1aee:	48 8d 85 30 ff ff ff 	lea    -0xd0(%rbp),%rax
    1af5:	49 89 d0             	mov    %rdx,%r8
    1af8:	b9 00 00 00 00       	mov    $0x0,%ecx
    1afd:	48 89 c2             	mov    %rax,%rdx
    1b00:	be 00 00 00 00       	mov    $0x0,%esi
    1b05:	89 df                	mov    %ebx,%edi
    1b07:	e8 2c f8 ff ff       	callq  1338 <select@plt>
    1b0c:	89 45 dc             	mov    %eax,-0x24(%rbp)
    1b0f:	83 7d dc 00          	cmpl   $0x0,-0x24(%rbp)
    1b13:	79 0c                	jns    1b21 <connect_timeout+0x13d>
    1b15:	e8 be f9 ff ff       	callq  14d8 <__errno_location@plt>
    1b1a:	8b 00                	mov    (%rax),%eax
    1b1c:	83 f8 04             	cmp    $0x4,%eax
    1b1f:	74 c0                	je     1ae1 <connect_timeout+0xfd>
    1b21:	83 7d dc 00          	cmpl   $0x0,-0x24(%rbp)
    1b25:	75 14                	jne    1b3b <connect_timeout+0x157>
    1b27:	c7 45 dc ff ff ff ff 	movl   $0xffffffff,-0x24(%rbp)
    1b2e:	e8 a5 f9 ff ff       	callq  14d8 <__errno_location@plt>
    1b33:	c7 00 6e 00 00 00    	movl   $0x6e,(%rax)
    1b39:	eb 70                	jmp    1bab <connect_timeout+0x1c7>
    1b3b:	83 7d dc 00          	cmpl   $0x0,-0x24(%rbp)
    1b3f:	79 07                	jns    1b48 <connect_timeout+0x164>
    1b41:	b8 ff ff ff ff       	mov    $0xffffffff,%eax
    1b46:	eb 7c                	jmp    1bc4 <connect_timeout+0x1e0>
    1b48:	83 7d dc 01          	cmpl   $0x1,-0x24(%rbp)
    1b4c:	75 5d                	jne    1bab <connect_timeout+0x1c7>
    1b4e:	c7 45 b8 04 00 00 00 	movl   $0x4,-0x48(%rbp)
    1b55:	48 8d 4d b8          	lea    -0x48(%rbp),%rcx
    1b59:	48 8d 55 bc          	lea    -0x44(%rbp),%rdx
    1b5d:	8b 85 2c ff ff ff    	mov    -0xd4(%rbp),%eax
    1b63:	49 89 c8             	mov    %rcx,%r8
    1b66:	48 89 d1             	mov    %rdx,%rcx
    1b69:	ba 04 00 00 00       	mov    $0x4,%edx
    1b6e:	be 01 00 00 00       	mov    $0x1,%esi
    1b73:	89 c7                	mov    %eax,%edi
    1b75:	e8 fe f8 ff ff       	callq  1478 <getsockopt@plt>
    1b7a:	89 45 ec             	mov    %eax,-0x14(%rbp)
    1b7d:	83 7d ec ff          	cmpl   $0xffffffff,-0x14(%rbp)
    1b81:	75 07                	jne    1b8a <connect_timeout+0x1a6>
    1b83:	b8 ff ff ff ff       	mov    $0xffffffff,%eax
    1b88:	eb 3a                	jmp    1bc4 <connect_timeout+0x1e0>
    1b8a:	8b 45 bc             	mov    -0x44(%rbp),%eax
    1b8d:	85 c0                	test   %eax,%eax
    1b8f:	75 09                	jne    1b9a <connect_timeout+0x1b6>
    1b91:	c7 45 dc 00 00 00 00 	movl   $0x0,-0x24(%rbp)
    1b98:	eb 11                	jmp    1bab <connect_timeout+0x1c7>
    1b9a:	e8 39 f9 ff ff       	callq  14d8 <__errno_location@plt>
    1b9f:	8b 55 bc             	mov    -0x44(%rbp),%edx
    1ba2:	89 10                	mov    %edx,(%rax)
    1ba4:	c7 45 dc ff ff ff ff 	movl   $0xffffffff,-0x24(%rbp)
    1bab:	83 bd 1c ff ff ff 00 	cmpl   $0x0,-0xe4(%rbp)
    1bb2:	74 0d                	je     1bc1 <connect_timeout+0x1dd>
    1bb4:	8b 85 2c ff ff ff    	mov    -0xd4(%rbp),%eax
    1bba:	89 c7                	mov    %eax,%edi
    1bbc:	e8 07 fa ff ff       	callq  15c8 <deactivate_nonblock@plt>
    1bc1:	8b 45 dc             	mov    -0x24(%rbp),%eax
    1bc4:	48 81 c4 e8 00 00 00 	add    $0xe8,%rsp
    1bcb:	5b                   	pop    %rbx
    1bcc:	c9                   	leaveq 
    1bcd:	c3                   	retq   

0000000000001bce <write_timeout>:
    1bce:	55                   	push   %rbp
    1bcf:	48 89 e5             	mov    %rsp,%rbp
    1bd2:	53                   	push   %rbx
    1bd3:	48 81 ec b8 00 00 00 	sub    $0xb8,%rsp
    1bda:	89 bd 4c ff ff ff    	mov    %edi,-0xb4(%rbp)
    1be0:	89 b5 48 ff ff ff    	mov    %esi,-0xb8(%rbp)
    1be6:	c7 45 e4 00 00 00 00 	movl   $0x0,-0x1c(%rbp)
    1bed:	83 bd 48 ff ff ff 00 	cmpl   $0x0,-0xb8(%rbp)
    1bf4:	0f 84 f1 00 00 00    	je     1ceb <write_timeout+0x11d>
    1bfa:	b8 00 00 00 00       	mov    $0x0,%eax
    1bff:	ba 10 00 00 00       	mov    $0x10,%edx
    1c04:	48 8d 9d 50 ff ff ff 	lea    -0xb0(%rbp),%rbx
    1c0b:	48 89 d1             	mov    %rdx,%rcx
    1c0e:	48 89 df             	mov    %rbx,%rdi
    1c11:	fc                   	cld    
    1c12:	f3 48 ab             	rep stos %rax,%es:(%rdi)
    1c15:	89 f8                	mov    %edi,%eax
    1c17:	89 ca                	mov    %ecx,%edx
    1c19:	89 55 e8             	mov    %edx,-0x18(%rbp)
    1c1c:	89 45 ec             	mov    %eax,-0x14(%rbp)
    1c1f:	8b 85 4c ff ff ff    	mov    -0xb4(%rbp),%eax
    1c25:	8d 50 3f             	lea    0x3f(%rax),%edx
    1c28:	85 c0                	test   %eax,%eax
    1c2a:	0f 48 c2             	cmovs  %edx,%eax
    1c2d:	c1 f8 06             	sar    $0x6,%eax
    1c30:	89 c3                	mov    %eax,%ebx
    1c32:	48 98                	cltq   
    1c34:	48 8b b4 c5 50 ff ff 	mov    -0xb0(%rbp,%rax,8),%rsi
    1c3b:	ff 
    1c3c:	8b 85 4c ff ff ff    	mov    -0xb4(%rbp),%eax
    1c42:	89 c2                	mov    %eax,%edx
    1c44:	c1 fa 1f             	sar    $0x1f,%edx
    1c47:	c1 ea 1a             	shr    $0x1a,%edx
    1c4a:	01 d0                	add    %edx,%eax
    1c4c:	83 e0 3f             	and    $0x3f,%eax
    1c4f:	29 d0                	sub    %edx,%eax
    1c51:	ba 01 00 00 00       	mov    $0x1,%edx
    1c56:	48 89 d7             	mov    %rdx,%rdi
    1c59:	89 c1                	mov    %eax,%ecx
    1c5b:	48 d3 e7             	shl    %cl,%rdi
    1c5e:	48 89 f8             	mov    %rdi,%rax
    1c61:	48 89 f2             	mov    %rsi,%rdx
    1c64:	48 09 c2             	or     %rax,%rdx
    1c67:	48 63 c3             	movslq %ebx,%rax
    1c6a:	48 89 94 c5 50 ff ff 	mov    %rdx,-0xb0(%rbp,%rax,8)
    1c71:	ff 
    1c72:	8b 85 48 ff ff ff    	mov    -0xb8(%rbp),%eax
    1c78:	48 89 45 d0          	mov    %rax,-0x30(%rbp)
    1c7c:	48 c7 45 d8 00 00 00 	movq   $0x0,-0x28(%rbp)
    1c83:	00 
    1c84:	8b 85 4c ff ff ff    	mov    -0xb4(%rbp),%eax
    1c8a:	8d 58 01             	lea    0x1(%rax),%ebx
    1c8d:	48 8d 55 d0          	lea    -0x30(%rbp),%rdx
    1c91:	48 8d 85 50 ff ff ff 	lea    -0xb0(%rbp),%rax
    1c98:	49 89 d0             	mov    %rdx,%r8
    1c9b:	b9 00 00 00 00       	mov    $0x0,%ecx
    1ca0:	48 89 c2             	mov    %rax,%rdx
    1ca3:	be 00 00 00 00       	mov    $0x0,%esi
    1ca8:	89 df                	mov    %ebx,%edi
    1caa:	e8 89 f6 ff ff       	callq  1338 <select@plt>
    1caf:	89 45 e4             	mov    %eax,-0x1c(%rbp)
    1cb2:	83 7d e4 00          	cmpl   $0x0,-0x1c(%rbp)
    1cb6:	79 0c                	jns    1cc4 <write_timeout+0xf6>
    1cb8:	e8 1b f8 ff ff       	callq  14d8 <__errno_location@plt>
    1cbd:	8b 00                	mov    (%rax),%eax
    1cbf:	83 f8 04             	cmp    $0x4,%eax
    1cc2:	74 c0                	je     1c84 <write_timeout+0xb6>
    1cc4:	83 7d e4 00          	cmpl   $0x0,-0x1c(%rbp)
    1cc8:	75 14                	jne    1cde <write_timeout+0x110>
    1cca:	c7 45 e4 ff ff ff ff 	movl   $0xffffffff,-0x1c(%rbp)
    1cd1:	e8 02 f8 ff ff       	callq  14d8 <__errno_location@plt>
    1cd6:	c7 00 6e 00 00 00    	movl   $0x6e,(%rax)
    1cdc:	eb 0d                	jmp    1ceb <write_timeout+0x11d>
    1cde:	83 7d e4 01          	cmpl   $0x1,-0x1c(%rbp)
    1ce2:	75 07                	jne    1ceb <write_timeout+0x11d>
    1ce4:	c7 45 e4 00 00 00 00 	movl   $0x0,-0x1c(%rbp)
    1ceb:	8b 45 e4             	mov    -0x1c(%rbp),%eax
    1cee:	48 81 c4 b8 00 00 00 	add    $0xb8,%rsp
    1cf5:	5b                   	pop    %rbx
    1cf6:	c9                   	leaveq 
    1cf7:	c3                   	retq   

0000000000001cf8 <read_timeout>:
    1cf8:	55                   	push   %rbp
                                push   %rbp
    1cf9:	48 89 e5             	mov    %rsp,%rbp
    1cfc:	53                   	push   %rbx
    1cfd:	48 81 ec b8 00 00 00 	sub    $0xb8,%rsp
    1d04:	89 bd 4c ff ff ff    	mov    %edi,-0xb4(%rbp)
    1d0a:	89 b5 48 ff ff ff    	mov    %esi,-0xb8(%rbp)
    1d10:	c7 45 e4 00 00 00 00 	movl   $0x0,-0x1c(%rbp)
    1d17:	83 bd 48 ff ff ff 00 	cmpl   $0x0,-0xb8(%rbp)
    1d1e:	0f 84 f1 00 00 00    	je     1e15 <read_timeout+0x11d>
    1d24:	b8 00 00 00 00       	mov    $0x0,%eax
    1d29:	ba 10 00 00 00       	mov    $0x10,%edx
    1d2e:	48 8d 9d 50 ff ff ff 	lea    -0xb0(%rbp),%rbx
    1d35:	48 89 d1             	mov    %rdx,%rcx
    1d38:	48 89 df             	mov    %rbx,%rdi
    1d3b:	fc                   	cld    
    1d3c:	f3 48 ab             	rep stos %rax,%es:(%rdi)
    1d3f:	89 f8                	mov    %edi,%eax
    1d41:	89 ca                	mov    %ecx,%edx
    1d43:	89 55 e8             	mov    %edx,-0x18(%rbp)
    1d46:	89 45 ec             	mov    %eax,-0x14(%rbp)
    1d49:	8b 85 4c ff ff ff    	mov    -0xb4(%rbp),%eax
    1d4f:	8d 50 3f             	lea    0x3f(%rax),%edx
    1d52:	85 c0                	test   %eax,%eax
    1d54:	0f 48 c2             	cmovs  %edx,%eax
    1d57:	c1 f8 06             	sar    $0x6,%eax
    1d5a:	89 c3                	mov    %eax,%ebx
    1d5c:	48 98                	cltq   
    1d5e:	48 8b b4 c5 50 ff ff 	mov    -0xb0(%rbp,%rax,8),%rsi
    1d65:	ff 
    1d66:	8b 85 4c ff ff ff    	mov    -0xb4(%rbp),%eax
    1d6c:	89 c2                	mov    %eax,%edx
    1d6e:	c1 fa 1f             	sar    $0x1f,%edx
    1d71:	c1 ea 1a             	shr    $0x1a,%edx
    1d74:	01 d0                	add    %edx,%eax
    1d76:	83 e0 3f             	and    $0x3f,%eax
    1d79:	29 d0                	sub    %edx,%eax
    1d7b:	ba 01 00 00 00       	mov    $0x1,%edx
    1d80:	48 89 d7             	mov    %rdx,%rdi
    1d83:	89 c1                	mov    %eax,%ecx
    1d85:	48 d3 e7             	shl    %cl,%rdi
    1d88:	48 89 f8             	mov    %rdi,%rax
    1d8b:	48 89 f2             	mov    %rsi,%rdx
    1d8e:	48 09 c2             	or     %rax,%rdx
    1d91:	48 63 c3             	movslq %ebx,%rax
    1d94:	48 89 94 c5 50 ff ff 	mov    %rdx,-0xb0(%rbp,%rax,8)
    1d9b:	ff 
    1d9c:	8b 85 48 ff ff ff    	mov    -0xb8(%rbp),%eax
    1da2:	48 89 45 d0          	mov    %rax,-0x30(%rbp)
    1da6:	48 c7 45 d8 00 00 00 	movq   $0x0,-0x28(%rbp)
    1dad:	00 
    1dae:	8b 85 4c ff ff ff    	mov    -0xb4(%rbp),%eax
    1db4:	8d 58 01             	lea    0x1(%rax),%ebx
    1db7:	48 8d 55 d0          	lea    -0x30(%rbp),%rdx
    1dbb:	48 8d 85 50 ff ff ff 	lea    -0xb0(%rbp),%rax
    1dc2:	49 89 d0             	mov    %rdx,%r8
    1dc5:	b9 00 00 00 00       	mov    $0x0,%ecx
    1dca:	ba 00 00 00 00       	mov    $0x0,%edx
    1dcf:	48 89 c6             	mov    %rax,%rsi
    1dd2:	89 df                	mov    %ebx,%edi
    1dd4:	e8 5f f5 ff ff       	callq  1338 <select@plt>
    1dd9:	89 45 e4             	mov    %eax,-0x1c(%rbp)
    1ddc:	83 7d e4 00          	cmpl   $0x0,-0x1c(%rbp)
    1de0:	79 0c                	jns    1dee <read_timeout+0xf6>
    1de2:	e8 f1 f6 ff ff       	callq  14d8 <__errno_location@plt>
    1de7:	8b 00                	mov    (%rax),%eax
    1de9:	83 f8 04             	cmp    $0x4,%eax
    1dec:	74 c0                	je     1dae <read_timeout+0xb6>
    1dee:	83 7d e4 00          	cmpl   $0x0,-0x1c(%rbp)
    1df2:	75 14                	jne    1e08 <read_timeout+0x110>
    1df4:	c7 45 e4 ff ff ff ff 	movl   $0xffffffff,-0x1c(%rbp)
    1dfb:	e8 d8 f6 ff ff       	callq  14d8 <__errno_location@plt>
    1e00:	c7 00 6e 00 00 00    	movl   $0x6e,(%rax)
    1e06:	eb 0d                	jmp    1e15 <read_timeout+0x11d>
    1e08:	83 7d e4 01          	cmpl   $0x1,-0x1c(%rbp)
    1e0c:	75 07                	jne    1e15 <read_timeout+0x11d>
    1e0e:	c7 45 e4 00 00 00 00 	movl   $0x0,-0x1c(%rbp)
    1e15:	8b 45 e4             	mov    -0x1c(%rbp),%eax
    1e18:	48 81 c4 b8 00 00 00 	add    $0xb8,%rsp
    1e1f:	5b                   	pop    %rbx
    1e20:	c9                   	leaveq 
    1e21:	c3                   	retq   

0000000000001e22 <sckClient_init>:
    1e22:	55                   	push   %rbp
    1e23:	48 89 e5             	mov    %rsp,%rbp
    1e26:	b8 00 00 00 00       	mov    $0x0,%eax
    1e2b:	c9                   	leaveq 
    1e2c:	c3                   	retq   

0000000000001e2d <sckClient_connect>:
    1e2d:	55                   	push   %rbp
    1e2e:	48 89 e5             	mov    %rsp,%rbp
    1e31:	48 83 ec 40          	sub    $0x40,%rsp
    1e35:	48 89 7d d8          	mov    %rdi,-0x28(%rbp)
    1e39:	89 75 d4             	mov    %esi,-0x2c(%rbp)
    1e3c:	89 55 d0             	mov    %edx,-0x30(%rbp)
    1e3f:	48 89 4d c8          	mov    %rcx,-0x38(%rbp)
    1e43:	c7 45 f8 00 00 00 00 	movl   $0x0,-0x8(%rbp)
    1e4a:	48 83 7d d8 00       	cmpq   $0x0,-0x28(%rbp)
    1e4f:	74 1c                	je     1e6d <sckClient_connect+0x40>
    1e51:	48 83 7d c8 00       	cmpq   $0x0,-0x38(%rbp)
    1e56:	74 15                	je     1e6d <sckClient_connect+0x40>
    1e58:	83 7d d4 00          	cmpl   $0x0,-0x2c(%rbp)
    1e5c:	7e 0f                	jle    1e6d <sckClient_connect+0x40>
    1e5e:	81 7d d4 01 00 01 00 	cmpl   $0x10001,-0x2c(%rbp)
    1e65:	7f 06                	jg     1e6d <sckClient_connect+0x40>
    1e67:	83 7d d0 00          	cmpl   $0x0,-0x30(%rbp)
    1e6b:	79 3d                	jns    1eaa <sckClient_connect+0x7d>
    1e6d:	c7 45 f8 b9 0b 00 00 	movl   $0xbb9,-0x8(%rbp)
    1e74:	48 8b 05 55 33 20 00 	mov    0x203355(%rip),%rax        # 2051d0 <_DYNAMIC+0x1a0>
    1e7b:	8b 40 10             	mov    0x10(%rax),%eax
    1e7e:	8b 55 f8             	mov    -0x8(%rbp),%edx
    1e81:	4c 8d 05 f0 21 00 00 	lea    0x21f0(%rip),%r8        # 4078 <_fini+0x60>
    1e88:	89 d1                	mov    %edx,%ecx
    1e8a:	89 c2                	mov    %eax,%edx
    1e8c:	be 3e 01 00 00       	mov    $0x13e,%esi
    1e91:	48 8d 3d ad 21 00 00 	lea    0x21ad(%rip),%rdi        # 4045 <_fini+0x2d>
    1e98:	b8 00 00 00 00       	mov    $0x0,%eax
    1e9d:	e8 e6 f4 ff ff       	callq  1388 <Socket_Log@plt>
    1ea2:	8b 45 f8             	mov    -0x8(%rbp),%eax
    1ea5:	e9 f9 00 00 00       	jmpq   1fa3 <sckClient_connect+0x176>
    1eaa:	ba 06 00 00 00       	mov    $0x6,%edx
    1eaf:	be 01 00 00 00       	mov    $0x1,%esi
    1eb4:	bf 02 00 00 00       	mov    $0x2,%edi
    1eb9:	e8 fa f5 ff ff       	callq  14b8 <socket@plt>
    1ebe:	89 45 fc             	mov    %eax,-0x4(%rbp)
    1ec1:	83 7d fc 00          	cmpl   $0x0,-0x4(%rbp)
    1ec5:	79 2b                	jns    1ef2 <sckClient_connect+0xc5>
    1ec7:	e8 0c f6 ff ff       	callq  14d8 <__errno_location@plt>
    1ecc:	8b 00                	mov    (%rax),%eax
    1ece:	89 45 f8             	mov    %eax,-0x8(%rbp)
    1ed1:	48 8d 05 0c 22 00 00 	lea    0x220c(%rip),%rax        # 40e4 <_fini+0xcc>
    1ed8:	8b 55 f8             	mov    -0x8(%rbp),%edx
    1edb:	89 d6                	mov    %edx,%esi
    1edd:	48 89 c7             	mov    %rax,%rdi
    1ee0:	b8 00 00 00 00       	mov    $0x0,%eax
    1ee5:	e8 0e f4 ff ff       	callq  12f8 <printf@plt>
    1eea:	8b 45 f8             	mov    -0x8(%rbp),%eax
    1eed:	e9 b1 00 00 00       	jmpq   1fa3 <sckClient_connect+0x176>
    1ef2:	48 8d 45 e0          	lea    -0x20(%rbp),%rax
    1ef6:	ba 10 00 00 00       	mov    $0x10,%edx
    1efb:	be 00 00 00 00       	mov    $0x0,%esi
    1f00:	48 89 c7             	mov    %rax,%rdi
    1f03:	e8 00 f4 ff ff       	callq  1308 <memset@plt>
    1f08:	66 c7 45 e0 02 00    	movw   $0x2,-0x20(%rbp)
    1f0e:	8b 45 d4             	mov    -0x2c(%rbp),%eax
    1f11:	0f b7 c0             	movzwl %ax,%eax
    1f14:	89 c7                	mov    %eax,%edi
    1f16:	e8 0d f4 ff ff       	callq  1328 <htons@plt>
    1f1b:	66 89 45 e2          	mov    %ax,-0x1e(%rbp)
    1f1f:	48 8b 45 d8          	mov    -0x28(%rbp),%rax
    1f23:	48 89 c7             	mov    %rax,%rdi
    1f26:	e8 cd f6 ff ff       	callq  15f8 <inet_addr@plt>
    1f2b:	89 45 e4             	mov    %eax,-0x1c(%rbp)
    1f2e:	8b 55 d0             	mov    -0x30(%rbp),%edx
    1f31:	48 8d 4d e0          	lea    -0x20(%rbp),%rcx
    1f35:	8b 45 fc             	mov    -0x4(%rbp),%eax
    1f38:	48 89 ce             	mov    %rcx,%rsi
    1f3b:	89 c7                	mov    %eax,%edi
    1f3d:	e8 a2 fa ff ff       	callq  19e4 <connect_timeout>
    1f42:	89 45 f8             	mov    %eax,-0x8(%rbp)
    1f45:	83 7d f8 00          	cmpl   $0x0,-0x8(%rbp)
    1f49:	79 4c                	jns    1f97 <sckClient_connect+0x16a>
    1f4b:	83 7d f8 ff          	cmpl   $0xffffffff,-0x8(%rbp)
    1f4f:	75 18                	jne    1f69 <sckClient_connect+0x13c>
    1f51:	e8 82 f5 ff ff       	callq  14d8 <__errno_location@plt>
    1f56:	8b 00                	mov    (%rax),%eax
    1f58:	83 f8 6e             	cmp    $0x6e,%eax
    1f5b:	75 0c                	jne    1f69 <sckClient_connect+0x13c>
    1f5d:	c7 45 f8 ba 0b 00 00 	movl   $0xbba,-0x8(%rbp)
    1f64:	8b 45 f8             	mov    -0x8(%rbp),%eax
    1f67:	eb 3a                	jmp    1fa3 <sckClient_connect+0x176>
    1f69:	48 8b 05 60 32 20 00 	mov    0x203260(%rip),%rax        # 2051d0 <_DYNAMIC+0x1a0>
    1f70:	8b 40 10             	mov    0x10(%rax),%eax
    1f73:	8b 55 f8             	mov    -0x8(%rbp),%edx
    1f76:	4c 8d 05 7f 21 00 00 	lea    0x217f(%rip),%r8        # 40fc <_fini+0xe4>
    1f7d:	89 d1                	mov    %edx,%ecx
    1f7f:	89 c2                	mov    %eax,%edx
    1f81:	be 5d 01 00 00       	mov    $0x15d,%esi
    1f86:	48 8d 3d b8 20 00 00 	lea    0x20b8(%rip),%rdi        # 4045 <_fini+0x2d>
    1f8d:	b8 00 00 00 00       	mov    $0x0,%eax
    1f92:	e8 f1 f3 ff ff       	callq  1388 <Socket_Log@plt>
    1f97:	48 8b 45 c8          	mov    -0x38(%rbp),%rax
    1f9b:	8b 55 fc             	mov    -0x4(%rbp),%edx
    1f9e:	89 10                	mov    %edx,(%rax)
    1fa0:	8b 45 f8             	mov    -0x8(%rbp),%eax
    1fa3:	c9                   	leaveq 
    1fa4:	c3                   	retq   

0000000000001fa5 <sckClient_send>:
    1fa5:	55                   	push   %rbp
    1fa6:	48 89 e5             	mov    %rsp,%rbp
    1fa9:	48 83 ec 40          	sub    $0x40,%rsp
    1fad:	89 7d dc             	mov    %edi,-0x24(%rbp)
    1fb0:	89 75 d8             	mov    %esi,-0x28(%rbp)
    1fb3:	48 89 55 d0          	mov    %rdx,-0x30(%rbp)
    1fb7:	89 4d cc             	mov    %ecx,-0x34(%rbp)
    1fba:	c7 45 f0 00 00 00 00 	movl   $0x0,-0x10(%rbp)
    1fc1:	48 83 7d d0 00       	cmpq   $0x0,-0x30(%rbp)
    1fc6:	74 06                	je     1fce <sckClient_send+0x29>
    1fc8:	83 7d cc 00          	cmpl   $0x0,-0x34(%rbp)
    1fcc:	7f 3d                	jg     200b <sckClient_send+0x66>
    1fce:	c7 45 f0 b9 0b 00 00 	movl   $0xbb9,-0x10(%rbp)
    1fd5:	48 8b 05 f4 31 20 00 	mov    0x2031f4(%rip),%rax        # 2051d0 <_DYNAMIC+0x1a0>
    1fdc:	8b 40 10             	mov    0x10(%rax),%eax
    1fdf:	8b 55 f0             	mov    -0x10(%rbp),%edx
    1fe2:	4c 8d 05 2f 21 00 00 	lea    0x212f(%rip),%r8        # 4118 <_fini+0x100>
    1fe9:	89 d1                	mov    %edx,%ecx
    1feb:	89 c2                	mov    %eax,%edx
    1fed:	be 70 01 00 00       	mov    $0x170,%esi
    1ff2:	48 8d 3d 4c 20 00 00 	lea    0x204c(%rip),%rdi        # 4045 <_fini+0x2d>
    1ff9:	b8 00 00 00 00       	mov    $0x0,%eax
    1ffe:	e8 85 f3 ff ff       	callq  1388 <Socket_Log@plt>
    2003:	8b 45 f0             	mov    -0x10(%rbp),%eax
    2006:	e9 50 01 00 00       	jmpq   215b <sckClient_send+0x1b6>
    200b:	8b 55 d8             	mov    -0x28(%rbp),%edx
    200e:	8b 45 dc             	mov    -0x24(%rbp),%eax
    2011:	89 d6                	mov    %edx,%esi
    2013:	89 c7                	mov    %eax,%edi
    2015:	e8 ce f4 ff ff       	callq  14e8 <write_timeout@plt>
    201a:	89 45 f0             	mov    %eax,-0x10(%rbp)
    201d:	83 7d f0 00          	cmpl   $0x0,-0x10(%rbp)
    2021:	0f 85 ef 00 00 00    	jne    2116 <sckClient_send+0x171>
    2027:	c7 45 f4 00 00 00 00 	movl   $0x0,-0xc(%rbp)
    202e:	8b 45 cc             	mov    -0x34(%rbp),%eax
    2031:	83 c0 04             	add    $0x4,%eax
    2034:	48 98                	cltq   
    2036:	48 89 c7             	mov    %rax,%rdi
    2039:	e8 2a f3 ff ff       	callq  1368 <malloc@plt>
    203e:	48 89 45 f8          	mov    %rax,-0x8(%rbp)
    2042:	48 83 7d f8 00       	cmpq   $0x0,-0x8(%rbp)
    2047:	75 28                	jne    2071 <sckClient_send+0xcc>
    2049:	c7 45 f0 bc 0b 00 00 	movl   $0xbbc,-0x10(%rbp)
    2050:	48 8d 05 01 21 00 00 	lea    0x2101(%rip),%rax        # 4158 <_fini+0x140>
    2057:	8b 55 f0             	mov    -0x10(%rbp),%edx
    205a:	89 d6                	mov    %edx,%esi
    205c:	48 89 c7             	mov    %rax,%rdi
    205f:	b8 00 00 00 00       	mov    $0x0,%eax
    2064:	e8 8f f2 ff ff       	callq  12f8 <printf@plt>
    2069:	8b 45 f0             	mov    -0x10(%rbp),%eax
    206c:	e9 ea 00 00 00       	jmpq   215b <sckClient_send+0x1b6>
    2071:	8b 45 cc             	mov    -0x34(%rbp),%eax
    2074:	89 c7                	mov    %eax,%edi
    2076:	e8 ad f4 ff ff       	callq  1528 <htonl@plt>
    207b:	89 45 ec             	mov    %eax,-0x14(%rbp)
    207e:	48 8d 4d ec          	lea    -0x14(%rbp),%rcx
    2082:	48 8b 45 f8          	mov    -0x8(%rbp),%rax
    2086:	ba 04 00 00 00       	mov    $0x4,%edx
    208b:	48 89 ce             	mov    %rcx,%rsi
    208e:	48 89 c7             	mov    %rax,%rdi
    2091:	e8 12 f4 ff ff       	callq  14a8 <memcpy@plt>
    2096:	8b 45 cc             	mov    -0x34(%rbp),%eax
    2099:	48 63 d0             	movslq %eax,%rdx
    209c:	48 8b 45 f8          	mov    -0x8(%rbp),%rax
    20a0:	48 8d 48 04          	lea    0x4(%rax),%rcx
    20a4:	48 8b 45 d0          	mov    -0x30(%rbp),%rax
    20a8:	48 89 c6             	mov    %rax,%rsi
    20ab:	48 89 cf             	mov    %rcx,%rdi
    20ae:	e8 f5 f3 ff ff       	callq  14a8 <memcpy@plt>
    20b3:	8b 45 cc             	mov    -0x34(%rbp),%eax
    20b6:	83 c0 04             	add    $0x4,%eax
    20b9:	48 63 d0             	movslq %eax,%rdx
    20bc:	48 8b 4d f8          	mov    -0x8(%rbp),%rcx
    20c0:	8b 45 dc             	mov    -0x24(%rbp),%eax
    20c3:	48 89 ce             	mov    %rcx,%rsi
    20c6:	89 c7                	mov    %eax,%edi
    20c8:	e8 6b f4 ff ff       	callq  1538 <writen@plt>
    20cd:	89 45 f4             	mov    %eax,-0xc(%rbp)
    20d0:	8b 45 cc             	mov    -0x34(%rbp),%eax
    20d3:	83 c0 04             	add    $0x4,%eax
    20d6:	3b 45 f4             	cmp    -0xc(%rbp),%eax
    20d9:	7e 20                	jle    20fb <sckClient_send+0x156>
    20db:	48 83 7d f8 00       	cmpq   $0x0,-0x8(%rbp)
    20e0:	74 14                	je     20f6 <sckClient_send+0x151>
    20e2:	48 8b 45 f8          	mov    -0x8(%rbp),%rax
    20e6:	48 89 c7             	mov    %rax,%rdi
    20e9:	e8 da f2 ff ff       	callq  13c8 <free@plt>
    20ee:	48 c7 45 f8 00 00 00 	movq   $0x0,-0x8(%rbp)
    20f5:	00 
    20f6:	8b 45 f4             	mov    -0xc(%rbp),%eax
    20f9:	eb 60                	jmp    215b <sckClient_send+0x1b6>
    20fb:	48 83 7d f8 00       	cmpq   $0x0,-0x8(%rbp)
    2100:	74 14                	je     2116 <sckClient_send+0x171>
    2102:	48 8b 45 f8          	mov    -0x8(%rbp),%rax
    2106:	48 89 c7             	mov    %rax,%rdi
    2109:	e8 ba f2 ff ff       	callq  13c8 <free@plt>
    210e:	48 c7 45 f8 00 00 00 	movq   $0x0,-0x8(%rbp)
    2115:	00 
    2116:	83 7d f0 00          	cmpl   $0x0,-0x10(%rbp)
    211a:	79 3c                	jns    2158 <sckClient_send+0x1b3>
    211c:	83 7d f0 ff          	cmpl   $0xffffffff,-0x10(%rbp)
    2120:	75 31                	jne    2153 <sckClient_send+0x1ae>
    2122:	e8 b1 f3 ff ff       	callq  14d8 <__errno_location@plt>
    2127:	8b 00                	mov    (%rax),%eax
    2129:	83 f8 6e             	cmp    $0x6e,%eax
    212c:	75 25                	jne    2153 <sckClient_send+0x1ae>
    212e:	c7 45 f0 ba 0b 00 00 	movl   $0xbba,-0x10(%rbp)
    2135:	48 8d 05 1c 20 00 00 	lea    0x201c(%rip),%rax        # 4158 <_fini+0x140>
    213c:	8b 55 f0             	mov    -0x10(%rbp),%edx
    213f:	89 d6                	mov    %edx,%esi
    2141:	48 89 c7             	mov    %rax,%rdi
    2144:	b8 00 00 00 00       	mov    $0x0,%eax
    2149:	e8 aa f1 ff ff       	callq  12f8 <printf@plt>
    214e:	8b 45 f0             	mov    -0x10(%rbp),%eax
    2151:	eb 08                	jmp    215b <sckClient_send+0x1b6>
    2153:	8b 45 f0             	mov    -0x10(%rbp),%eax
    2156:	eb 03                	jmp    215b <sckClient_send+0x1b6>
    2158:	8b 45 f0             	mov    -0x10(%rbp),%eax
    215b:	c9                   	leaveq 
    215c:	c3                   	retq   

000000000000215d <sckClient_rev>:
    215d:	55                   	push   %rbp
    215e:	48 89 e5             	mov    %rsp,%rbp
    2161:	48 83 ec 40          	sub    $0x40,%rsp
    2165:	89 7d dc             	mov    %edi,-0x24(%rbp)
    2168:	89 75 d8             	mov    %esi,-0x28(%rbp)
    216b:	48 89 55 d0          	mov    %rdx,-0x30(%rbp)
    216f:	48 89 4d c8          	mov    %rcx,-0x38(%rbp)
    2173:	c7 45 ec 00 00 00 00 	movl   $0x0,-0x14(%rbp)
    217a:	48 c7 45 f0 00 00 00 	movq   $0x0,-0x10(%rbp)
    2181:	00 
    2182:	48 83 7d d0 00       	cmpq   $0x0,-0x30(%rbp)
    2187:	74 07                	je     2190 <sckClient_rev+0x33>
    2189:	48 83 7d c8 00       	cmpq   $0x0,-0x38(%rbp)
    218e:	75 28                	jne    21b8 <sckClient_rev+0x5b>
    2190:	c7 45 ec b9 0b 00 00 	movl   $0xbb9,-0x14(%rbp)
    2197:	48 8d 05 e2 1f 00 00 	lea    0x1fe2(%rip),%rax        # 4180 <_fini+0x168>
    219e:	be ba 0b 00 00       	mov    $0xbba,%esi
    21a3:	48 89 c7             	mov    %rax,%rdi
    21a6:	b8 00 00 00 00       	mov    $0x0,%eax
    21ab:	e8 48 f1 ff ff       	callq  12f8 <printf@plt>
    21b0:	8b 45 ec             	mov    -0x14(%rbp),%eax
    21b3:	e9 5f 02 00 00       	jmpq   2417 <sckClient_rev+0x2ba>
    21b8:	8b 55 d8             	mov    -0x28(%rbp),%edx
    21bb:	8b 45 dc             	mov    -0x24(%rbp),%eax
    21be:	89 d6                	mov    %edx,%esi
    21c0:	89 c7                	mov    %eax,%edi
    21c2:	e8 31 f2 ff ff       	callq  13f8 <read_timeout@plt>
    21c7:	89 45 ec             	mov    %eax,-0x14(%rbp)
    21ca:	83 7d ec 00          	cmpl   $0x0,-0x14(%rbp)
    21ce:	0f 84 85 00 00 00    	je     2259 <sckClient_rev+0xfc>
    21d4:	83 7d ec ff          	cmpl   $0xffffffff,-0x14(%rbp)
    21d8:	74 0c                	je     21e6 <sckClient_rev+0x89>
    21da:	e8 f9 f2 ff ff       	callq  14d8 <__errno_location@plt>
    21df:	8b 00                	mov    (%rax),%eax
    21e1:	83 f8 6e             	cmp    $0x6e,%eax
    21e4:	75 3d                	jne    2223 <sckClient_rev+0xc6>
    21e6:	c7 45 ec ba 0b 00 00 	movl   $0xbba,-0x14(%rbp)
    21ed:	48 8b 05 dc 2f 20 00 	mov    0x202fdc(%rip),%rax        # 2051d0 <_DYNAMIC+0x1a0>
    21f4:	8b 40 10             	mov    0x10(%rax),%eax
    21f7:	8b 55 ec             	mov    -0x14(%rbp),%edx
    21fa:	4c 8d 05 a7 1f 00 00 	lea    0x1fa7(%rip),%r8        # 41a8 <_fini+0x190>
    2201:	89 d1                	mov    %edx,%ecx
    2203:	89 c2                	mov    %eax,%edx
    2205:	be b9 01 00 00       	mov    $0x1b9,%esi
    220a:	48 8d 3d 34 1e 00 00 	lea    0x1e34(%rip),%rdi        # 4045 <_fini+0x2d>
    2211:	b8 00 00 00 00       	mov    $0x0,%eax
    2216:	e8 6d f1 ff ff       	callq  1388 <Socket_Log@plt>
    221b:	8b 45 ec             	mov    -0x14(%rbp),%eax
    221e:	e9 f4 01 00 00       	jmpq   2417 <sckClient_rev+0x2ba>
    2223:	48 8b 05 a6 2f 20 00 	mov    0x202fa6(%rip),%rax        # 2051d0 <_DYNAMIC+0x1a0>
    222a:	8b 40 10             	mov    0x10(%rax),%eax
    222d:	8b 55 ec             	mov    -0x14(%rbp),%edx
    2230:	4c 8d 05 8d 1f 00 00 	lea    0x1f8d(%rip),%r8        # 41c4 <_fini+0x1ac>
    2237:	89 d1                	mov    %edx,%ecx
    2239:	89 c2                	mov    %eax,%edx
    223b:	be be 01 00 00       	mov    $0x1be,%esi
    2240:	48 8d 3d fe 1d 00 00 	lea    0x1dfe(%rip),%rdi        # 4045 <_fini+0x2d>
    2247:	b8 00 00 00 00       	mov    $0x0,%eax
    224c:	e8 37 f1 ff ff       	callq  1388 <Socket_Log@plt>
    2251:	8b 45 ec             	mov    -0x14(%rbp),%eax
    2254:	e9 be 01 00 00       	jmpq   2417 <sckClient_rev+0x2ba>
    2259:	c7 45 e8 00 00 00 00 	movl   $0x0,-0x18(%rbp)
    2260:	48 8d 4d e8          	lea    -0x18(%rbp),%rcx
    2264:	8b 45 dc             	mov    -0x24(%rbp),%eax
    2267:	ba 04 00 00 00       	mov    $0x4,%edx
    226c:	48 89 ce             	mov    %rcx,%rsi
    226f:	89 c7                	mov    %eax,%edi
    2271:	e8 42 f1 ff ff       	callq  13b8 <readn@plt>
    2276:	89 45 ec             	mov    %eax,-0x14(%rbp)
    2279:	83 7d ec ff          	cmpl   $0xffffffff,-0x14(%rbp)
    227d:	75 36                	jne    22b5 <sckClient_rev+0x158>
    227f:	48 8b 05 4a 2f 20 00 	mov    0x202f4a(%rip),%rax        # 2051d0 <_DYNAMIC+0x1a0>
    2286:	8b 40 10             	mov    0x10(%rax),%eax
    2289:	8b 55 ec             	mov    -0x14(%rbp),%edx
    228c:	4c 8d 05 49 1f 00 00 	lea    0x1f49(%rip),%r8        # 41dc <_fini+0x1c4>
    2293:	89 d1                	mov    %edx,%ecx
    2295:	89 c2                	mov    %eax,%edx
    2297:	be c8 01 00 00       	mov    $0x1c8,%esi
    229c:	48 8d 3d a2 1d 00 00 	lea    0x1da2(%rip),%rdi        # 4045 <_fini+0x2d>
    22a3:	b8 00 00 00 00       	mov    $0x0,%eax
    22a8:	e8 db f0 ff ff       	callq  1388 <Socket_Log@plt>
    22ad:	8b 45 ec             	mov    -0x14(%rbp),%eax
    22b0:	e9 62 01 00 00       	jmpq   2417 <sckClient_rev+0x2ba>
    22b5:	83 7d ec 03          	cmpl   $0x3,-0x14(%rbp)
    22b9:	7f 3d                	jg     22f8 <sckClient_rev+0x19b>
    22bb:	c7 45 ec bb 0b 00 00 	movl   $0xbbb,-0x14(%rbp)
    22c2:	48 8b 05 07 2f 20 00 	mov    0x202f07(%rip),%rax        # 2051d0 <_DYNAMIC+0x1a0>
    22c9:	8b 40 10             	mov    0x10(%rax),%eax
    22cc:	8b 55 ec             	mov    -0x14(%rbp),%edx
    22cf:	4c 8d 05 17 1f 00 00 	lea    0x1f17(%rip),%r8        # 41ed <_fini+0x1d5>
    22d6:	89 d1                	mov    %edx,%ecx
    22d8:	89 c2                	mov    %eax,%edx
    22da:	be cf 01 00 00       	mov    $0x1cf,%esi
    22df:	48 8d 3d 5f 1d 00 00 	lea    0x1d5f(%rip),%rdi        # 4045 <_fini+0x2d>
    22e6:	b8 00 00 00 00       	mov    $0x0,%eax
    22eb:	e8 98 f0 ff ff       	callq  1388 <Socket_Log@plt>
    22f0:	8b 45 ec             	mov    -0x14(%rbp),%eax
    22f3:	e9 1f 01 00 00       	jmpq   2417 <sckClient_rev+0x2ba>
    22f8:	8b 45 e8             	mov    -0x18(%rbp),%eax
    22fb:	89 c7                	mov    %eax,%edi
    22fd:	e8 46 f1 ff ff       	callq  1448 <ntohl@plt>
    2302:	89 45 fc             	mov    %eax,-0x4(%rbp)
    2305:	8b 45 fc             	mov    -0x4(%rbp),%eax
    2308:	83 c0 01             	add    $0x1,%eax
    230b:	48 98                	cltq   
    230d:	48 89 c7             	mov    %rax,%rdi
    2310:	e8 53 f0 ff ff       	callq  1368 <malloc@plt>
    2315:	48 89 45 f0          	mov    %rax,-0x10(%rbp)
    2319:	48 83 7d f0 00       	cmpq   $0x0,-0x10(%rbp)
    231e:	75 3d                	jne    235d <sckClient_rev+0x200>
    2320:	c7 45 ec bc 0b 00 00 	movl   $0xbbc,-0x14(%rbp)
    2327:	48 8b 05 a2 2e 20 00 	mov    0x202ea2(%rip),%rax        # 2051d0 <_DYNAMIC+0x1a0>
    232e:	8b 40 10             	mov    0x10(%rax),%eax
    2331:	8b 55 ec             	mov    -0x14(%rbp),%edx
    2334:	4c 8d 05 d0 1e 00 00 	lea    0x1ed0(%rip),%r8        # 420b <_fini+0x1f3>
    233b:	89 d1                	mov    %edx,%ecx
    233d:	89 c2                	mov    %eax,%edx
    233f:	be d9 01 00 00       	mov    $0x1d9,%esi
    2344:	48 8d 3d fa 1c 00 00 	lea    0x1cfa(%rip),%rdi        # 4045 <_fini+0x2d>
    234b:	b8 00 00 00 00       	mov    $0x0,%eax
    2350:	e8 33 f0 ff ff       	callq  1388 <Socket_Log@plt>
    2355:	8b 45 ec             	mov    -0x14(%rbp),%eax
    2358:	e9 ba 00 00 00       	jmpq   2417 <sckClient_rev+0x2ba>
    235d:	8b 45 fc             	mov    -0x4(%rbp),%eax
    2360:	48 63 d0             	movslq %eax,%rdx
    2363:	48 8b 4d f0          	mov    -0x10(%rbp),%rcx
    2367:	8b 45 dc             	mov    -0x24(%rbp),%eax
    236a:	48 89 ce             	mov    %rcx,%rsi
    236d:	89 c7                	mov    %eax,%edi
    236f:	e8 44 f0 ff ff       	callq  13b8 <readn@plt>
    2374:	89 45 ec             	mov    %eax,-0x14(%rbp)
    2377:	83 7d ec ff          	cmpl   $0xffffffff,-0x14(%rbp)
    237b:	75 33                	jne    23b0 <sckClient_rev+0x253>
    237d:	48 8b 05 4c 2e 20 00 	mov    0x202e4c(%rip),%rax        # 2051d0 <_DYNAMIC+0x1a0>
    2384:	8b 40 10             	mov    0x10(%rax),%eax
    2387:	8b 55 ec             	mov    -0x14(%rbp),%edx
    238a:	4c 8d 05 87 1e 00 00 	lea    0x1e87(%rip),%r8        # 4218 <_fini+0x200>
    2391:	89 d1                	mov    %edx,%ecx
    2393:	89 c2                	mov    %eax,%edx
    2395:	be e2 01 00 00       	mov    $0x1e2,%esi
    239a:	48 8d 3d a4 1c 00 00 	lea    0x1ca4(%rip),%rdi        # 4045 <_fini+0x2d>
    23a1:	b8 00 00 00 00       	mov    $0x0,%eax
    23a6:	e8 dd ef ff ff       	callq  1388 <Socket_Log@plt>
    23ab:	8b 45 ec             	mov    -0x14(%rbp),%eax
    23ae:	eb 67                	jmp    2417 <sckClient_rev+0x2ba>
    23b0:	8b 45 ec             	mov    -0x14(%rbp),%eax
    23b3:	3b 45 fc             	cmp    -0x4(%rbp),%eax
    23b6:	7d 3a                	jge    23f2 <sckClient_rev+0x295>
    23b8:	c7 45 ec bb 0b 00 00 	movl   $0xbbb,-0x14(%rbp)
    23bf:	48 8b 05 0a 2e 20 00 	mov    0x202e0a(%rip),%rax        # 2051d0 <_DYNAMIC+0x1a0>
    23c6:	8b 40 10             	mov    0x10(%rax),%eax
    23c9:	8b 55 ec             	mov    -0x14(%rbp),%edx
    23cc:	4c 8d 05 55 1e 00 00 	lea    0x1e55(%rip),%r8        # 4228 <_fini+0x210>
    23d3:	89 d1                	mov    %edx,%ecx
    23d5:	89 c2                	mov    %eax,%edx
    23d7:	be e9 01 00 00       	mov    $0x1e9,%esi
    23dc:	48 8d 3d 62 1c 00 00 	lea    0x1c62(%rip),%rdi        # 4045 <_fini+0x2d>
    23e3:	b8 00 00 00 00       	mov    $0x0,%eax
    23e8:	e8 9b ef ff ff       	callq  1388 <Socket_Log@plt>
    23ed:	8b 45 ec             	mov    -0x14(%rbp),%eax
    23f0:	eb 25                	jmp    2417 <sckClient_rev+0x2ba>
    23f2:	48 8b 45 d0          	mov    -0x30(%rbp),%rax
    23f6:	48 8b 55 f0          	mov    -0x10(%rbp),%rdx
    23fa:	48 89 10             	mov    %rdx,(%rax)
    23fd:	48 8b 45 c8          	mov    -0x38(%rbp),%rax
    2401:	8b 55 fc             	mov    -0x4(%rbp),%edx
    2404:	89 10                	mov    %edx,(%rax)
    2406:	8b 45 fc             	mov    -0x4(%rbp),%eax
    2409:	48 98                	cltq   
    240b:	48 03 45 f0          	add    -0x10(%rbp),%rax
    240f:	c6 00 00             	movb   $0x0,(%rax)
    2412:	b8 00 00 00 00       	mov    $0x0,%eax
    2417:	c9                   	leaveq 
    2418:	c3                   	retq   

0000000000002419 <sckClient_closeconn>:
    2419:	55                   	push   %rbp
    241a:	48 89 e5             	mov    %rsp,%rbp
    241d:	48 83 ec 10          	sub    $0x10,%rsp
    2421:	89 7d fc             	mov    %edi,-0x4(%rbp)
    2424:	83 7d fc 00          	cmpl   $0x0,-0x4(%rbp)
    2428:	78 0a                	js     2434 <sckClient_closeconn+0x1b>
    242a:	8b 45 fc             	mov    -0x4(%rbp),%eax
    242d:	89 c7                	mov    %eax,%edi
    242f:	e8 e4 ee ff ff       	callq  1318 <close@plt>
    2434:	b8 00 00 00 00       	mov    $0x0,%eax
    2439:	c9                   	leaveq 
    243a:	c3                   	retq   

000000000000243b <sck_FreeMem>:
    243b:	55                   	push   %rbp
    243c:	48 89 e5             	mov    %rsp,%rbp
    243f:	48 83 ec 10          	sub    $0x10,%rsp
    2443:	48 89 7d f8          	mov    %rdi,-0x8(%rbp)
    2447:	48 83 7d f8 00       	cmpq   $0x0,-0x8(%rbp)
    244c:	75 07                	jne    2455 <sck_FreeMem+0x1a>
    244e:	b8 00 00 00 00       	mov    $0x0,%eax
    2453:	eb 2b                	jmp    2480 <sck_FreeMem+0x45>
    2455:	48 8b 45 f8          	mov    -0x8(%rbp),%rax
    2459:	48 8b 00             	mov    (%rax),%rax
    245c:	48 85 c0             	test   %rax,%rax
    245f:	74 0f                	je     2470 <sck_FreeMem+0x35>
    2461:	48 8b 45 f8          	mov    -0x8(%rbp),%rax
    2465:	48 8b 00             	mov    (%rax),%rax
    2468:	48 89 c7             	mov    %rax,%rdi
    246b:	e8 58 ef ff ff       	callq  13c8 <free@plt>
    2470:	48 8b 45 f8          	mov    -0x8(%rbp),%rax
    2474:	48 c7 00 00 00 00 00 	movq   $0x0,(%rax)
    247b:	b8 00 00 00 00       	mov    $0x0,%eax
    2480:	c9                   	leaveq 
    2481:	c3                   	retq   

0000000000002482 <sckClient_destroy>:
    2482:	55                   	push   %rbp
    2483:	48 89 e5             	mov    %rsp,%rbp
    2486:	b8 00 00 00 00       	mov    $0x0,%eax
    248b:	c9                   	leaveq 
    248c:	c3                   	retq   

000000000000248d <sckServer_init>:
    248d:	55                   	push   %rbp
    248e:	48 89 e5             	mov    %rsp,%rbp
    2491:	48 83 ec 40          	sub    $0x40,%rsp
    2495:	89 7d cc             	mov    %edi,-0x34(%rbp)
    2498:	48 89 75 c0          	mov    %rsi,-0x40(%rbp)
    249c:	c7 45 f8 00 00 00 00 	movl   $0x0,-0x8(%rbp)
    24a3:	48 8d 45 e0          	lea    -0x20(%rbp),%rax
    24a7:	ba 10 00 00 00       	mov    $0x10,%edx
    24ac:	be 00 00 00 00       	mov    $0x0,%esi
    24b1:	48 89 c7             	mov    %rax,%rdi
    24b4:	e8 4f ee ff ff       	callq  1308 <memset@plt>
    24b9:	66 c7 45 e0 02 00    	movw   $0x2,-0x20(%rbp)
    24bf:	8b 45 cc             	mov    -0x34(%rbp),%eax
    24c2:	0f b7 c0             	movzwl %ax,%eax
    24c5:	89 c7                	mov    %eax,%edi
    24c7:	e8 5c ee ff ff       	callq  1328 <htons@plt>
    24cc:	66 89 45 e2          	mov    %ax,-0x1e(%rbp)
    24d0:	bf 00 00 00 00       	mov    $0x0,%edi
    24d5:	e8 4e f0 ff ff       	callq  1528 <htonl@plt>
    24da:	89 45 e4             	mov    %eax,-0x1c(%rbp)
    24dd:	ba 00 00 00 00       	mov    $0x0,%edx
    24e2:	be 01 00 00 00       	mov    $0x1,%esi
    24e7:	bf 02 00 00 00       	mov    $0x2,%edi
    24ec:	e8 c7 ef ff ff       	callq  14b8 <socket@plt>
    24f1:	89 45 fc             	mov    %eax,-0x4(%rbp)
    24f4:	83 7d fc 00          	cmpl   $0x0,-0x4(%rbp)
    24f8:	79 40                	jns    253a <sckServer_init+0xad>
    24fa:	e8 d9 ef ff ff       	callq  14d8 <__errno_location@plt>
    24ff:	8b 00                	mov    (%rax),%eax
    2501:	89 45 f8             	mov    %eax,-0x8(%rbp)
    2504:	48 8b 05 c5 2c 20 00 	mov    0x202cc5(%rip),%rax        # 2051d0 <_DYNAMIC+0x1a0>
    250b:	8b 40 10             	mov    0x10(%rax),%eax
    250e:	8b 55 f8             	mov    -0x8(%rbp),%edx
    2511:	4c 8d 05 2f 1d 00 00 	lea    0x1d2f(%rip),%r8        # 4247 <_fini+0x22f>
    2518:	89 d1                	mov    %edx,%ecx
    251a:	89 c2                	mov    %eax,%edx
    251c:	be 27 02 00 00       	mov    $0x227,%esi
    2521:	48 8d 3d 1d 1b 00 00 	lea    0x1b1d(%rip),%rdi        # 4045 <_fini+0x2d>
    2528:	b8 00 00 00 00       	mov    $0x0,%eax
    252d:	e8 56 ee ff ff       	callq  1388 <Socket_Log@plt>
    2532:	8b 45 f8             	mov    -0x8(%rbp),%eax
    2535:	e9 30 01 00 00       	jmpq   266a <sckServer_init+0x1dd>
    253a:	c7 45 dc 01 00 00 00 	movl   $0x1,-0x24(%rbp)
    2541:	48 8d 55 dc          	lea    -0x24(%rbp),%rdx
    2545:	8b 45 fc             	mov    -0x4(%rbp),%eax
    2548:	41 b8 04 00 00 00    	mov    $0x4,%r8d
    254e:	48 89 d1             	mov    %rdx,%rcx
    2551:	ba 02 00 00 00       	mov    $0x2,%edx
    2556:	be 01 00 00 00       	mov    $0x1,%esi
    255b:	89 c7                	mov    %eax,%edi
    255d:	e8 36 ee ff ff       	callq  1398 <setsockopt@plt>
    2562:	89 45 f8             	mov    %eax,-0x8(%rbp)
    2565:	83 7d f8 00          	cmpl   $0x0,-0x8(%rbp)
    2569:	79 40                	jns    25ab <sckServer_init+0x11e>
    256b:	e8 68 ef ff ff       	callq  14d8 <__errno_location@plt>
    2570:	8b 00                	mov    (%rax),%eax
    2572:	89 45 f8             	mov    %eax,-0x8(%rbp)
    2575:	48 8b 05 54 2c 20 00 	mov    0x202c54(%rip),%rax        # 2051d0 <_DYNAMIC+0x1a0>
    257c:	8b 40 10             	mov    0x10(%rax),%eax
    257f:	8b 55 f8             	mov    -0x8(%rbp),%edx
    2582:	4c 8d 05 d0 1c 00 00 	lea    0x1cd0(%rip),%r8        # 4259 <_fini+0x241>
    2589:	89 d1                	mov    %edx,%ecx
    258b:	89 c2                	mov    %eax,%edx
    258d:	be 31 02 00 00       	mov    $0x231,%esi
    2592:	48 8d 3d ac 1a 00 00 	lea    0x1aac(%rip),%rdi        # 4045 <_fini+0x2d>
    2599:	b8 00 00 00 00       	mov    $0x0,%eax
    259e:	e8 e5 ed ff ff       	callq  1388 <Socket_Log@plt>
    25a3:	8b 45 f8             	mov    -0x8(%rbp),%eax
    25a6:	e9 bf 00 00 00       	jmpq   266a <sckServer_init+0x1dd>
    25ab:	48 8d 4d e0          	lea    -0x20(%rbp),%rcx
    25af:	8b 45 fc             	mov    -0x4(%rbp),%eax
    25b2:	ba 10 00 00 00       	mov    $0x10,%edx
    25b7:	48 89 ce             	mov    %rcx,%rsi
    25ba:	89 c7                	mov    %eax,%edi
    25bc:	e8 57 ef ff ff       	callq  1518 <bind@plt>
    25c1:	89 45 f8             	mov    %eax,-0x8(%rbp)
    25c4:	83 7d f8 00          	cmpl   $0x0,-0x8(%rbp)
    25c8:	79 3d                	jns    2607 <sckServer_init+0x17a>
    25ca:	e8 09 ef ff ff       	callq  14d8 <__errno_location@plt>
    25cf:	8b 00                	mov    (%rax),%eax
    25d1:	89 45 f8             	mov    %eax,-0x8(%rbp)
    25d4:	48 8b 05 f5 2b 20 00 	mov    0x202bf5(%rip),%rax        # 2051d0 <_DYNAMIC+0x1a0>
    25db:	8b 40 10             	mov    0x10(%rax),%eax
    25de:	8b 55 f8             	mov    -0x8(%rbp),%edx
    25e1:	4c 8d 05 87 1c 00 00 	lea    0x1c87(%rip),%r8        # 426f <_fini+0x257>
    25e8:	89 d1                	mov    %edx,%ecx
    25ea:	89 c2                	mov    %eax,%edx
    25ec:	be 3a 02 00 00       	mov    $0x23a,%esi
    25f1:	48 8d 3d 4d 1a 00 00 	lea    0x1a4d(%rip),%rdi        # 4045 <_fini+0x2d>
    25f8:	b8 00 00 00 00       	mov    $0x0,%eax
    25fd:	e8 86 ed ff ff       	callq  1388 <Socket_Log@plt>
    2602:	8b 45 f8             	mov    -0x8(%rbp),%eax
    2605:	eb 63                	jmp    266a <sckServer_init+0x1dd>
    2607:	8b 45 fc             	mov    -0x4(%rbp),%eax
    260a:	be 80 00 00 00       	mov    $0x80,%esi
    260f:	89 c7                	mov    %eax,%edi
    2611:	e8 f2 ed ff ff       	callq  1408 <listen@plt>
    2616:	89 45 f8             	mov    %eax,-0x8(%rbp)
    2619:	83 7d f8 00          	cmpl   $0x0,-0x8(%rbp)
    261d:	79 3d                	jns    265c <sckServer_init+0x1cf>
    261f:	e8 b4 ee ff ff       	callq  14d8 <__errno_location@plt>
    2624:	8b 00                	mov    (%rax),%eax
    2626:	89 45 f8             	mov    %eax,-0x8(%rbp)
    2629:	48 8b 05 a0 2b 20 00 	mov    0x202ba0(%rip),%rax        # 2051d0 <_DYNAMIC+0x1a0>
    2630:	8b 40 10             	mov    0x10(%rax),%eax
    2633:	8b 55 f8             	mov    -0x8(%rbp),%edx
    2636:	4c 8d 05 42 1c 00 00 	lea    0x1c42(%rip),%r8        # 427f <_fini+0x267>
    263d:	89 d1                	mov    %edx,%ecx
    263f:	89 c2                	mov    %eax,%edx
    2641:	be 42 02 00 00       	mov    $0x242,%esi
    2646:	48 8d 3d f8 19 00 00 	lea    0x19f8(%rip),%rdi        # 4045 <_fini+0x2d>
    264d:	b8 00 00 00 00       	mov    $0x0,%eax
    2652:	e8 31 ed ff ff       	callq  1388 <Socket_Log@plt>
    2657:	8b 45 f8             	mov    -0x8(%rbp),%eax
    265a:	eb 0e                	jmp    266a <sckServer_init+0x1dd>
    265c:	48 8b 45 c0          	mov    -0x40(%rbp),%rax
    2660:	8b 55 fc             	mov    -0x4(%rbp),%edx
    2663:	89 10                	mov    %edx,(%rax)
    2665:	b8 00 00 00 00       	mov    $0x0,%eax
    266a:	c9                   	leaveq 
    266b:	c3                   	retq   

000000000000266c <accept_timeout>:
    266c:	55                   	push   %rbp
    266d:	48 89 e5             	mov    %rsp,%rbp
    2670:	53                   	push   %rbx
    2671:	48 81 ec c8 00 00 00 	sub    $0xc8,%rsp
    2678:	89 bd 4c ff ff ff    	mov    %edi,-0xb4(%rbp)
    267e:	48 89 b5 40 ff ff ff 	mov    %rsi,-0xc0(%rbp)
    2685:	89 95 3c ff ff ff    	mov    %edx,-0xc4(%rbp)
    268b:	c7 45 e0 10 00 00 00 	movl   $0x10,-0x20(%rbp)
    2692:	83 bd 3c ff ff ff 00 	cmpl   $0x0,-0xc4(%rbp)
    2699:	0f 84 f5 00 00 00    	je     2794 <accept_timeout+0x128>
    269f:	b8 00 00 00 00       	mov    $0x0,%eax
    26a4:	ba 10 00 00 00       	mov    $0x10,%edx
    26a9:	48 8d 9d 50 ff ff ff 	lea    -0xb0(%rbp),%rbx
    26b0:	48 89 d1             	mov    %rdx,%rcx
    26b3:	48 89 df             	mov    %rbx,%rdi
    26b6:	fc                   	cld    
    26b7:	f3 48 ab             	rep stos %rax,%es:(%rdi)
    26ba:	89 f8                	mov    %edi,%eax
    26bc:	89 ca                	mov    %ecx,%edx
    26be:	89 55 e8             	mov    %edx,-0x18(%rbp)
    26c1:	89 45 ec             	mov    %eax,-0x14(%rbp)
    26c4:	8b 85 4c ff ff ff    	mov    -0xb4(%rbp),%eax
    26ca:	8d 50 3f             	lea    0x3f(%rax),%edx
    26cd:	85 c0                	test   %eax,%eax
    26cf:	0f 48 c2             	cmovs  %edx,%eax
    26d2:	c1 f8 06             	sar    $0x6,%eax
    26d5:	89 c3                	mov    %eax,%ebx
    26d7:	48 98                	cltq   
    26d9:	48 8b b4 c5 50 ff ff 	mov    -0xb0(%rbp,%rax,8),%rsi
    26e0:	ff 
    26e1:	8b 85 4c ff ff ff    	mov    -0xb4(%rbp),%eax
    26e7:	89 c2                	mov    %eax,%edx
    26e9:	c1 fa 1f             	sar    $0x1f,%edx
    26ec:	c1 ea 1a             	shr    $0x1a,%edx
    26ef:	01 d0                	add    %edx,%eax
    26f1:	83 e0 3f             	and    $0x3f,%eax
    26f4:	29 d0                	sub    %edx,%eax
    26f6:	ba 01 00 00 00       	mov    $0x1,%edx
    26fb:	48 89 d7             	mov    %rdx,%rdi
    26fe:	89 c1                	mov    %eax,%ecx
    2700:	48 d3 e7             	shl    %cl,%rdi
    2703:	48 89 f8             	mov    %rdi,%rax
    2706:	48 89 f2             	mov    %rsi,%rdx
    2709:	48 09 c2             	or     %rax,%rdx
    270c:	48 63 c3             	movslq %ebx,%rax
    270f:	48 89 94 c5 50 ff ff 	mov    %rdx,-0xb0(%rbp,%rax,8)
    2716:	ff 
    2717:	8b 85 3c ff ff ff    	mov    -0xc4(%rbp),%eax
    271d:	48 89 45 d0          	mov    %rax,-0x30(%rbp)
    2721:	48 c7 45 d8 00 00 00 	movq   $0x0,-0x28(%rbp)
    2728:	00 
    2729:	8b 85 4c ff ff ff    	mov    -0xb4(%rbp),%eax
    272f:	8d 58 01             	lea    0x1(%rax),%ebx
    2732:	48 8d 55 d0          	lea    -0x30(%rbp),%rdx
    2736:	48 8d 85 50 ff ff ff 	lea    -0xb0(%rbp),%rax
    273d:	49 89 d0             	mov    %rdx,%r8
    2740:	b9 00 00 00 00       	mov    $0x0,%ecx
    2745:	ba 00 00 00 00       	mov    $0x0,%edx
    274a:	48 89 c6             	mov    %rax,%rsi
    274d:	89 df                	mov    %ebx,%edi
    274f:	e8 e4 eb ff ff       	callq  1338 <select@plt>
    2754:	89 45 e4             	mov    %eax,-0x1c(%rbp)
    2757:	83 7d e4 00          	cmpl   $0x0,-0x1c(%rbp)
    275b:	79 0c                	jns    2769 <accept_timeout+0xfd>
    275d:	e8 76 ed ff ff       	callq  14d8 <__errno_location@plt>
    2762:	8b 00                	mov    (%rax),%eax
    2764:	83 f8 04             	cmp    $0x4,%eax
    2767:	74 c0                	je     2729 <accept_timeout+0xbd>
    2769:	83 7d e4 ff          	cmpl   $0xffffffff,-0x1c(%rbp)
    276d:	75 0a                	jne    2779 <accept_timeout+0x10d>
    276f:	b8 ff ff ff ff       	mov    $0xffffffff,%eax
    2774:	e9 a5 00 00 00       	jmpq   281e <accept_timeout+0x1b2>
    2779:	83 7d e4 00          	cmpl   $0x0,-0x1c(%rbp)
    277d:	75 15                	jne    2794 <accept_timeout+0x128>
    277f:	e8 54 ed ff ff       	callq  14d8 <__errno_location@plt>
    2784:	c7 00 6e 00 00 00    	movl   $0x6e,(%rax)
    278a:	b8 ff ff ff ff       	mov    $0xffffffff,%eax
    278f:	e9 8a 00 00 00       	jmpq   281e <accept_timeout+0x1b2>
    2794:	48 83 bd 40 ff ff ff 	cmpq   $0x0,-0xc0(%rbp)
    279b:	00 
    279c:	74 20                	je     27be <accept_timeout+0x152>
    279e:	48 8b 8d 40 ff ff ff 	mov    -0xc0(%rbp),%rcx
    27a5:	48 8d 55 e0          	lea    -0x20(%rbp),%rdx
    27a9:	8b 85 4c ff ff ff    	mov    -0xb4(%rbp),%eax
    27af:	48 89 ce             	mov    %rcx,%rsi
    27b2:	89 c7                	mov    %eax,%edi
    27b4:	e8 df ed ff ff       	callq  1598 <accept@plt>
    27b9:	89 45 e4             	mov    %eax,-0x1c(%rbp)
    27bc:	eb 1a                	jmp    27d8 <accept_timeout+0x16c>
    27be:	8b 85 4c ff ff ff    	mov    -0xb4(%rbp),%eax
    27c4:	ba 00 00 00 00       	mov    $0x0,%edx
    27c9:	be 00 00 00 00       	mov    $0x0,%esi
    27ce:	89 c7                	mov    %eax,%edi
    27d0:	e8 c3 ed ff ff       	callq  1598 <accept@plt>
    27d5:	89 45 e4             	mov    %eax,-0x1c(%rbp)
    27d8:	83 7d e4 ff          	cmpl   $0xffffffff,-0x1c(%rbp)
    27dc:	75 3d                	jne    281b <accept_timeout+0x1af>
    27de:	e8 f5 ec ff ff       	callq  14d8 <__errno_location@plt>
    27e3:	8b 00                	mov    (%rax),%eax
    27e5:	89 45 e4             	mov    %eax,-0x1c(%rbp)
    27e8:	48 8b 05 e1 29 20 00 	mov    0x2029e1(%rip),%rax        # 2051d0 <_DYNAMIC+0x1a0>
    27ef:	8b 40 10             	mov    0x10(%rax),%eax
    27f2:	8b 55 e4             	mov    -0x1c(%rbp),%edx
    27f5:	4c 8d 05 95 1a 00 00 	lea    0x1a95(%rip),%r8        # 4291 <_fini+0x279>
    27fc:	89 d1                	mov    %edx,%ecx
    27fe:	89 c2                	mov    %eax,%edx
    2800:	be 75 02 00 00       	mov    $0x275,%esi
    2805:	48 8d 3d 39 18 00 00 	lea    0x1839(%rip),%rdi        # 4045 <_fini+0x2d>
    280c:	b8 00 00 00 00       	mov    $0x0,%eax
    2811:	e8 72 eb ff ff       	callq  1388 <Socket_Log@plt>
    2816:	8b 45 e4             	mov    -0x1c(%rbp),%eax
    2819:	eb 03                	jmp    281e <accept_timeout+0x1b2>
    281b:	8b 45 e4             	mov    -0x1c(%rbp),%eax
    281e:	48 81 c4 c8 00 00 00 	add    $0xc8,%rsp
    2825:	5b                   	pop    %rbx
    2826:	c9                   	leaveq 
    2827:	c3                   	retq   

0000000000002828 <sckServer_accept>:
    2828:	55                   	push   %rbp
    2829:	48 89 e5             	mov    %rsp,%rbp
    282c:	48 83 ec 20          	sub    $0x20,%rsp
    2830:	89 7d ec             	mov    %edi,-0x14(%rbp)
    2833:	89 75 e8             	mov    %esi,-0x18(%rbp)
    2836:	48 89 55 e0          	mov    %rdx,-0x20(%rbp)
    283a:	c7 45 fc 00 00 00 00 	movl   $0x0,-0x4(%rbp)
    2841:	8b 55 e8             	mov    -0x18(%rbp),%edx
    2844:	8b 45 ec             	mov    -0x14(%rbp),%eax
    2847:	be 00 00 00 00       	mov    $0x0,%esi
    284c:	89 c7                	mov    %eax,%edi
    284e:	e8 25 ed ff ff       	callq  1578 <accept_timeout@plt>
    2853:	89 45 fc             	mov    %eax,-0x4(%rbp)
    2856:	83 7d fc 00          	cmpl   $0x0,-0x4(%rbp)
    285a:	79 5b                	jns    28b7 <sckServer_accept+0x8f>
    285c:	83 7d fc ff          	cmpl   $0xffffffff,-0x4(%rbp)
    2860:	75 18                	jne    287a <sckServer_accept+0x52>
    2862:	e8 71 ec ff ff       	callq  14d8 <__errno_location@plt>
    2867:	8b 00                	mov    (%rax),%eax
    2869:	83 f8 6e             	cmp    $0x6e,%eax
    286c:	75 0c                	jne    287a <sckServer_accept+0x52>
    286e:	c7 45 fc ba 0b 00 00 	movl   $0xbba,-0x4(%rbp)
    2875:	8b 45 fc             	mov    -0x4(%rbp),%eax
    2878:	eb 4b                	jmp    28c5 <sckServer_accept+0x9d>
    287a:	e8 59 ec ff ff       	callq  14d8 <__errno_location@plt>
    287f:	8b 00                	mov    (%rax),%eax
    2881:	89 45 fc             	mov    %eax,-0x4(%rbp)
    2884:	48 8b 05 45 29 20 00 	mov    0x202945(%rip),%rax        # 2051d0 <_DYNAMIC+0x1a0>
    288b:	8b 40 10             	mov    0x10(%rax),%eax
    288e:	8b 55 fc             	mov    -0x4(%rbp),%edx
    2891:	4c 8d 05 0b 1a 00 00 	lea    0x1a0b(%rip),%r8        # 42a3 <_fini+0x28b>
    2898:	89 d1                	mov    %edx,%ecx
    289a:	89 c2                	mov    %eax,%edx
    289c:	be 8d 02 00 00       	mov    $0x28d,%esi
    28a1:	48 8d 3d 9d 17 00 00 	lea    0x179d(%rip),%rdi        # 4045 <_fini+0x2d>
    28a8:	b8 00 00 00 00       	mov    $0x0,%eax
    28ad:	e8 d6 ea ff ff       	callq  1388 <Socket_Log@plt>
    28b2:	8b 45 fc             	mov    -0x4(%rbp),%eax
    28b5:	eb 0e                	jmp    28c5 <sckServer_accept+0x9d>
    28b7:	48 8b 45 e0          	mov    -0x20(%rbp),%rax
    28bb:	8b 55 fc             	mov    -0x4(%rbp),%edx
    28be:	89 10                	mov    %edx,(%rax)
    28c0:	b8 00 00 00 00       	mov    $0x0,%eax
    28c5:	c9                   	leaveq 
    28c6:	c3                   	retq   

00000000000028c7 <sckServer_send>:
    28c7:	55                   	push   %rbp
    28c8:	48 89 e5             	mov    %rsp,%rbp
    28cb:	48 83 ec 40          	sub    $0x40,%rsp
    28cf:	89 7d dc             	mov    %edi,-0x24(%rbp)
    28d2:	89 75 d8             	mov    %esi,-0x28(%rbp)
    28d5:	48 89 55 d0          	mov    %rdx,-0x30(%rbp)
    28d9:	89 4d cc             	mov    %ecx,-0x34(%rbp)
    28dc:	c7 45 f0 00 00 00 00 	movl   $0x0,-0x10(%rbp)
    28e3:	8b 55 d8             	mov    -0x28(%rbp),%edx
    28e6:	8b 45 dc             	mov    -0x24(%rbp),%eax
    28e9:	89 d6                	mov    %edx,%esi
    28eb:	89 c7                	mov    %eax,%edi
    28ed:	e8 f6 eb ff ff       	callq  14e8 <write_timeout@plt>
    28f2:	89 45 f0             	mov    %eax,-0x10(%rbp)
    28f5:	83 7d f0 00          	cmpl   $0x0,-0x10(%rbp)
    28f9:	0f 85 e9 00 00 00    	jne    29e8 <sckServer_send+0x121>
    28ff:	c7 45 f4 00 00 00 00 	movl   $0x0,-0xc(%rbp)
    2906:	8b 45 cc             	mov    -0x34(%rbp),%eax
    2909:	83 c0 04             	add    $0x4,%eax
    290c:	48 98                	cltq   
    290e:	48 89 c7             	mov    %rax,%rdi
    2911:	e8 52 ea ff ff       	callq  1368 <malloc@plt>
    2916:	48 89 45 f8          	mov    %rax,-0x8(%rbp)
    291a:	48 83 7d f8 00       	cmpq   $0x0,-0x8(%rbp)
    291f:	75 3d                	jne    295e <sckServer_send+0x97>
    2921:	c7 45 f0 bc 0b 00 00 	movl   $0xbbc,-0x10(%rbp)
    2928:	48 8b 05 a1 28 20 00 	mov    0x2028a1(%rip),%rax        # 2051d0 <_DYNAMIC+0x1a0>
    292f:	8b 40 10             	mov    0x10(%rax),%eax
    2932:	8b 55 f0             	mov    -0x10(%rbp),%edx
    2935:	4c 8d 05 81 19 00 00 	lea    0x1981(%rip),%r8        # 42bd <_fini+0x2a5>
    293c:	89 d1                	mov    %edx,%ecx
    293e:	89 c2                	mov    %eax,%edx
    2940:	be a2 02 00 00       	mov    $0x2a2,%esi
    2945:	48 8d 3d f9 16 00 00 	lea    0x16f9(%rip),%rdi        # 4045 <_fini+0x2d>
    294c:	b8 00 00 00 00       	mov    $0x0,%eax
    2951:	e8 32 ea ff ff       	callq  1388 <Socket_Log@plt>
    2956:	8b 45 f0             	mov    -0x10(%rbp),%eax
    2959:	e9 e4 00 00 00       	jmpq   2a42 <sckServer_send+0x17b>
    295e:	8b 45 cc             	mov    -0x34(%rbp),%eax
    2961:	89 c7                	mov    %eax,%edi
    2963:	e8 c0 eb ff ff       	callq  1528 <htonl@plt>
    2968:	89 45 ec             	mov    %eax,-0x14(%rbp)
    296b:	48 8d 4d ec          	lea    -0x14(%rbp),%rcx
    296f:	48 8b 45 f8          	mov    -0x8(%rbp),%rax
    2973:	ba 04 00 00 00       	mov    $0x4,%edx
    2978:	48 89 ce             	mov    %rcx,%rsi
    297b:	48 89 c7             	mov    %rax,%rdi
    297e:	e8 25 eb ff ff       	callq  14a8 <memcpy@plt>
    2983:	8b 45 cc             	mov    -0x34(%rbp),%eax
    2986:	48 63 d0             	movslq %eax,%rdx
    2989:	48 8b 45 f8          	mov    -0x8(%rbp),%rax
    298d:	48 8d 48 04          	lea    0x4(%rax),%rcx
    2991:	48 8b 45 d0          	mov    -0x30(%rbp),%rax
    2995:	48 89 c6             	mov    %rax,%rsi
    2998:	48 89 cf             	mov    %rcx,%rdi
    299b:	e8 08 eb ff ff       	callq  14a8 <memcpy@plt>
    29a0:	8b 45 cc             	mov    -0x34(%rbp),%eax
    29a3:	83 c0 04             	add    $0x4,%eax
    29a6:	48 63 d0             	movslq %eax,%rdx
    29a9:	48 8b 4d f8          	mov    -0x8(%rbp),%rcx
    29ad:	8b 45 dc             	mov    -0x24(%rbp),%eax
    29b0:	48 89 ce             	mov    %rcx,%rsi
    29b3:	89 c7                	mov    %eax,%edi
    29b5:	e8 7e eb ff ff       	callq  1538 <writen@plt>
    29ba:	89 45 f4             	mov    %eax,-0xc(%rbp)
    29bd:	8b 45 cc             	mov    -0x34(%rbp),%eax
    29c0:	83 c0 04             	add    $0x4,%eax
    29c3:	3b 45 f4             	cmp    -0xc(%rbp),%eax
    29c6:	7e 20                	jle    29e8 <sckServer_send+0x121>
    29c8:	48 83 7d f8 00       	cmpq   $0x0,-0x8(%rbp)
    29cd:	74 14                	je     29e3 <sckServer_send+0x11c>
    29cf:	48 8b 45 f8          	mov    -0x8(%rbp),%rax
    29d3:	48 89 c7             	mov    %rax,%rdi
    29d6:	e8 ed e9 ff ff       	callq  13c8 <free@plt>
    29db:	48 c7 45 f8 00 00 00 	movq   $0x0,-0x8(%rbp)
    29e2:	00 
    29e3:	8b 45 f4             	mov    -0xc(%rbp),%eax
    29e6:	eb 5a                	jmp    2a42 <sckServer_send+0x17b>
    29e8:	83 7d f0 00          	cmpl   $0x0,-0x10(%rbp)
    29ec:	79 51                	jns    2a3f <sckServer_send+0x178>
    29ee:	83 7d f0 ff          	cmpl   $0xffffffff,-0x10(%rbp)
    29f2:	75 46                	jne    2a3a <sckServer_send+0x173>
    29f4:	e8 df ea ff ff       	callq  14d8 <__errno_location@plt>
    29f9:	8b 00                	mov    (%rax),%eax
    29fb:	83 f8 6e             	cmp    $0x6e,%eax
    29fe:	75 3a                	jne    2a3a <sckServer_send+0x173>
    2a00:	c7 45 f0 ba 0b 00 00 	movl   $0xbba,-0x10(%rbp)
    2a07:	48 8b 05 c2 27 20 00 	mov    0x2027c2(%rip),%rax        # 2051d0 <_DYNAMIC+0x1a0>
    2a0e:	8b 40 10             	mov    0x10(%rax),%eax
    2a11:	8b 55 f0             	mov    -0x10(%rbp),%edx
    2a14:	4c 8d 05 b4 18 00 00 	lea    0x18b4(%rip),%r8        # 42cf <_fini+0x2b7>
    2a1b:	89 d1                	mov    %edx,%ecx
    2a1d:	89 c2                	mov    %eax,%edx
    2a1f:	be bc 02 00 00       	mov    $0x2bc,%esi
    2a24:	48 8d 3d 1a 16 00 00 	lea    0x161a(%rip),%rdi        # 4045 <_fini+0x2d>
    2a2b:	b8 00 00 00 00       	mov    $0x0,%eax
    2a30:	e8 53 e9 ff ff       	callq  1388 <Socket_Log@plt>
    2a35:	8b 45 f0             	mov    -0x10(%rbp),%eax
    2a38:	eb 08                	jmp    2a42 <sckServer_send+0x17b>
    2a3a:	8b 45 f0             	mov    -0x10(%rbp),%eax
    2a3d:	eb 03                	jmp    2a42 <sckServer_send+0x17b>
    2a3f:	8b 45 f0             	mov    -0x10(%rbp),%eax
    2a42:	c9                   	leaveq 
    2a43:	c3                   	retq   

0000000000002a44 <sckServer_rev>:
    2a44:	55                   	push   %rbp
    2a45:	48 89 e5             	mov    %rsp,%rbp
    2a48:	48 83 ec 40          	sub    $0x40,%rsp
    2a4c:	89 7d dc             	mov    %edi,-0x24(%rbp)
    2a4f:	89 75 d8             	mov    %esi,-0x28(%rbp)
    2a52:	48 89 55 d0          	mov    %rdx,-0x30(%rbp)
    2a56:	48 89 4d c8          	mov    %rcx,-0x38(%rbp)
    2a5a:	c7 45 ec 00 00 00 00 	movl   $0x0,-0x14(%rbp)
    2a61:	48 c7 45 f0 00 00 00 	movq   $0x0,-0x10(%rbp)
    2a68:	00 
    2a69:	48 83 7d d0 00       	cmpq   $0x0,-0x30(%rbp)
    2a6e:	74 07                	je     2a77 <sckServer_rev+0x33>
    2a70:	48 83 7d c8 00       	cmpq   $0x0,-0x38(%rbp)
    2a75:	75 3d                	jne    2ab4 <sckServer_rev+0x70>
    2a77:	c7 45 ec b9 0b 00 00 	movl   $0xbb9,-0x14(%rbp)
    2a7e:	48 8b 05 4b 27 20 00 	mov    0x20274b(%rip),%rax        # 2051d0 <_DYNAMIC+0x1a0>
    2a85:	8b 40 10             	mov    0x10(%rax),%eax
    2a88:	8b 55 ec             	mov    -0x14(%rbp),%edx
    2a8b:	4c 8d 05 5e 18 00 00 	lea    0x185e(%rip),%r8        # 42f0 <_fini+0x2d8>
    2a92:	89 d1                	mov    %edx,%ecx
    2a94:	89 c2                	mov    %eax,%edx
    2a96:	be ce 02 00 00       	mov    $0x2ce,%esi
    2a9b:	48 8d 3d a3 15 00 00 	lea    0x15a3(%rip),%rdi        # 4045 <_fini+0x2d>
    2aa2:	b8 00 00 00 00       	mov    $0x0,%eax
    2aa7:	e8 dc e8 ff ff       	callq  1388 <Socket_Log@plt>
    2aac:	8b 45 ec             	mov    -0x14(%rbp),%eax
    2aaf:	e9 5f 02 00 00       	jmpq   2d13 <sckServer_rev+0x2cf>
    2ab4:	8b 55 d8             	mov    -0x28(%rbp),%edx
    2ab7:	8b 45 dc             	mov    -0x24(%rbp),%eax
    2aba:	89 d6                	mov    %edx,%esi
    2abc:	89 c7                	mov    %eax,%edi
    2abe:	e8 35 e9 ff ff       	callq  13f8 <read_timeout@plt>
    2ac3:	89 45 ec             	mov    %eax,-0x14(%rbp)
    2ac6:	83 7d ec 00          	cmpl   $0x0,-0x14(%rbp)
    2aca:	0f 84 85 00 00 00    	je     2b55 <sckServer_rev+0x111>
    2ad0:	83 7d ec ff          	cmpl   $0xffffffff,-0x14(%rbp)
    2ad4:	74 0c                	je     2ae2 <sckServer_rev+0x9e>
    2ad6:	e8 fd e9 ff ff       	callq  14d8 <__errno_location@plt>
    2adb:	8b 00                	mov    (%rax),%eax
    2add:	83 f8 6e             	cmp    $0x6e,%eax
    2ae0:	75 3d                	jne    2b1f <sckServer_rev+0xdb>
    2ae2:	c7 45 ec ba 0b 00 00 	movl   $0xbba,-0x14(%rbp)
    2ae9:	48 8b 05 e0 26 20 00 	mov    0x2026e0(%rip),%rax        # 2051d0 <_DYNAMIC+0x1a0>
    2af0:	8b 40 10             	mov    0x10(%rax),%eax
    2af3:	8b 55 ec             	mov    -0x14(%rbp),%edx
    2af6:	4c 8d 05 c7 16 00 00 	lea    0x16c7(%rip),%r8        # 41c4 <_fini+0x1ac>
    2afd:	89 d1                	mov    %edx,%ecx
    2aff:	89 c2                	mov    %eax,%edx
    2b01:	be d8 02 00 00       	mov    $0x2d8,%esi
    2b06:	48 8d 3d 38 15 00 00 	lea    0x1538(%rip),%rdi        # 4045 <_fini+0x2d>
    2b0d:	b8 00 00 00 00       	mov    $0x0,%eax
    2b12:	e8 71 e8 ff ff       	callq  1388 <Socket_Log@plt>
    2b17:	8b 45 ec             	mov    -0x14(%rbp),%eax
    2b1a:	e9 f4 01 00 00       	jmpq   2d13 <sckServer_rev+0x2cf>
    2b1f:	48 8b 05 aa 26 20 00 	mov    0x2026aa(%rip),%rax        # 2051d0 <_DYNAMIC+0x1a0>
    2b26:	8b 40 10             	mov    0x10(%rax),%eax
    2b29:	8b 55 ec             	mov    -0x14(%rbp),%edx
    2b2c:	4c 8d 05 91 16 00 00 	lea    0x1691(%rip),%r8        # 41c4 <_fini+0x1ac>
    2b33:	89 d1                	mov    %edx,%ecx
    2b35:	89 c2                	mov    %eax,%edx
    2b37:	be dd 02 00 00       	mov    $0x2dd,%esi
    2b3c:	48 8d 3d 02 15 00 00 	lea    0x1502(%rip),%rdi        # 4045 <_fini+0x2d>
    2b43:	b8 00 00 00 00       	mov    $0x0,%eax
    2b48:	e8 3b e8 ff ff       	callq  1388 <Socket_Log@plt>
    2b4d:	8b 45 ec             	mov    -0x14(%rbp),%eax
    2b50:	e9 be 01 00 00       	jmpq   2d13 <sckServer_rev+0x2cf>
    2b55:	c7 45 e8 00 00 00 00 	movl   $0x0,-0x18(%rbp)
    2b5c:	48 8d 4d e8          	lea    -0x18(%rbp),%rcx
    2b60:	8b 45 dc             	mov    -0x24(%rbp),%eax
    2b63:	ba 04 00 00 00       	mov    $0x4,%edx
    2b68:	48 89 ce             	mov    %rcx,%rsi
    2b6b:	89 c7                	mov    %eax,%edi
    2b6d:	e8 46 e8 ff ff       	callq  13b8 <readn@plt>
    2b72:	89 45 ec             	mov    %eax,-0x14(%rbp)
    2b75:	83 7d ec ff          	cmpl   $0xffffffff,-0x14(%rbp)
    2b79:	75 36                	jne    2bb1 <sckServer_rev+0x16d>
    2b7b:	48 8b 05 4e 26 20 00 	mov    0x20264e(%rip),%rax        # 2051d0 <_DYNAMIC+0x1a0>
    2b82:	8b 40 10             	mov    0x10(%rax),%eax
    2b85:	8b 55 ec             	mov    -0x14(%rbp),%edx
    2b88:	4c 8d 05 4d 16 00 00 	lea    0x164d(%rip),%r8        # 41dc <_fini+0x1c4>
    2b8f:	89 d1                	mov    %edx,%ecx
    2b91:	89 c2                	mov    %eax,%edx
    2b93:	be e6 02 00 00       	mov    $0x2e6,%esi
    2b98:	48 8d 3d a6 14 00 00 	lea    0x14a6(%rip),%rdi        # 4045 <_fini+0x2d>
    2b9f:	b8 00 00 00 00       	mov    $0x0,%eax
    2ba4:	e8 df e7 ff ff       	callq  1388 <Socket_Log@plt>
    2ba9:	8b 45 ec             	mov    -0x14(%rbp),%eax
    2bac:	e9 62 01 00 00       	jmpq   2d13 <sckServer_rev+0x2cf>
    2bb1:	83 7d ec 03          	cmpl   $0x3,-0x14(%rbp)
    2bb5:	7f 3d                	jg     2bf4 <sckServer_rev+0x1b0>
    2bb7:	c7 45 ec bb 0b 00 00 	movl   $0xbbb,-0x14(%rbp)
    2bbe:	48 8b 05 0b 26 20 00 	mov    0x20260b(%rip),%rax        # 2051d0 <_DYNAMIC+0x1a0>
    2bc5:	8b 40 10             	mov    0x10(%rax),%eax
    2bc8:	8b 55 ec             	mov    -0x14(%rbp),%edx
    2bcb:	4c 8d 05 1b 16 00 00 	lea    0x161b(%rip),%r8        # 41ed <_fini+0x1d5>
    2bd2:	89 d1                	mov    %edx,%ecx
    2bd4:	89 c2                	mov    %eax,%edx
    2bd6:	be ec 02 00 00       	mov    $0x2ec,%esi
    2bdb:	48 8d 3d 63 14 00 00 	lea    0x1463(%rip),%rdi        # 4045 <_fini+0x2d>
    2be2:	b8 00 00 00 00       	mov    $0x0,%eax
    2be7:	e8 9c e7 ff ff       	callq  1388 <Socket_Log@plt>
    2bec:	8b 45 ec             	mov    -0x14(%rbp),%eax
    2bef:	e9 1f 01 00 00       	jmpq   2d13 <sckServer_rev+0x2cf>
    2bf4:	8b 45 e8             	mov    -0x18(%rbp),%eax
    2bf7:	89 c7                	mov    %eax,%edi
    2bf9:	e8 4a e8 ff ff       	callq  1448 <ntohl@plt>
    2bfe:	89 45 fc             	mov    %eax,-0x4(%rbp)
    2c01:	8b 45 fc             	mov    -0x4(%rbp),%eax
    2c04:	83 c0 01             	add    $0x1,%eax
    2c07:	48 98                	cltq   
    2c09:	48 89 c7             	mov    %rax,%rdi
    2c0c:	e8 57 e7 ff ff       	callq  1368 <malloc@plt>
    2c11:	48 89 45 f0          	mov    %rax,-0x10(%rbp)
    2c15:	48 83 7d f0 00       	cmpq   $0x0,-0x10(%rbp)
    2c1a:	75 3d                	jne    2c59 <sckServer_rev+0x215>
    2c1c:	c7 45 ec bc 0b 00 00 	movl   $0xbbc,-0x14(%rbp)
    2c23:	48 8b 05 a6 25 20 00 	mov    0x2025a6(%rip),%rax        # 2051d0 <_DYNAMIC+0x1a0>
    2c2a:	8b 40 10             	mov    0x10(%rax),%eax
    2c2d:	8b 55 ec             	mov    -0x14(%rbp),%edx
    2c30:	4c 8d 05 86 16 00 00 	lea    0x1686(%rip),%r8        # 42bd <_fini+0x2a5>
    2c37:	89 d1                	mov    %edx,%ecx
    2c39:	89 c2                	mov    %eax,%edx
    2c3b:	be f7 02 00 00       	mov    $0x2f7,%esi
    2c40:	48 8d 3d fe 13 00 00 	lea    0x13fe(%rip),%rdi        # 4045 <_fini+0x2d>
    2c47:	b8 00 00 00 00       	mov    $0x0,%eax
    2c4c:	e8 37 e7 ff ff       	callq  1388 <Socket_Log@plt>
    2c51:	8b 45 ec             	mov    -0x14(%rbp),%eax
    2c54:	e9 ba 00 00 00       	jmpq   2d13 <sckServer_rev+0x2cf>
    2c59:	8b 45 fc             	mov    -0x4(%rbp),%eax
    2c5c:	48 63 d0             	movslq %eax,%rdx
    2c5f:	48 8b 4d f0          	mov    -0x10(%rbp),%rcx
    2c63:	8b 45 dc             	mov    -0x24(%rbp),%eax
    2c66:	48 89 ce             	mov    %rcx,%rsi
    2c69:	89 c7                	mov    %eax,%edi
    2c6b:	e8 48 e7 ff ff       	callq  13b8 <readn@plt>
    2c70:	89 45 ec             	mov    %eax,-0x14(%rbp)
    2c73:	83 7d ec ff          	cmpl   $0xffffffff,-0x14(%rbp)
    2c77:	75 33                	jne    2cac <sckServer_rev+0x268>
    2c79:	48 8b 05 50 25 20 00 	mov    0x202550(%rip),%rax        # 2051d0 <_DYNAMIC+0x1a0>
    2c80:	8b 40 10             	mov    0x10(%rax),%eax
    2c83:	8b 55 ec             	mov    -0x14(%rbp),%edx
    2c86:	4c 8d 05 4f 15 00 00 	lea    0x154f(%rip),%r8        # 41dc <_fini+0x1c4>
    2c8d:	89 d1                	mov    %edx,%ecx
    2c8f:	89 c2                	mov    %eax,%edx
    2c91:	be fe 02 00 00       	mov    $0x2fe,%esi
    2c96:	48 8d 3d a8 13 00 00 	lea    0x13a8(%rip),%rdi        # 4045 <_fini+0x2d>
    2c9d:	b8 00 00 00 00       	mov    $0x0,%eax
    2ca2:	e8 e1 e6 ff ff       	callq  1388 <Socket_Log@plt>
    2ca7:	8b 45 ec             	mov    -0x14(%rbp),%eax
    2caa:	eb 67                	jmp    2d13 <sckServer_rev+0x2cf>
    2cac:	8b 45 ec             	mov    -0x14(%rbp),%eax
    2caf:	3b 45 fc             	cmp    -0x4(%rbp),%eax
    2cb2:	7d 3a                	jge    2cee <sckServer_rev+0x2aa>
    2cb4:	c7 45 ec bb 0b 00 00 	movl   $0xbbb,-0x14(%rbp)
    2cbb:	48 8b 05 0e 25 20 00 	mov    0x20250e(%rip),%rax        # 2051d0 <_DYNAMIC+0x1a0>
    2cc2:	8b 40 10             	mov    0x10(%rax),%eax
    2cc5:	8b 55 ec             	mov    -0x14(%rbp),%edx
    2cc8:	4c 8d 05 5d 16 00 00 	lea    0x165d(%rip),%r8        # 432c <_fini+0x314>
    2ccf:	89 d1                	mov    %edx,%ecx
    2cd1:	89 c2                	mov    %eax,%edx
    2cd3:	be 04 03 00 00       	mov    $0x304,%esi
    2cd8:	48 8d 3d 66 13 00 00 	lea    0x1366(%rip),%rdi        # 4045 <_fini+0x2d>
    2cdf:	b8 00 00 00 00       	mov    $0x0,%eax
    2ce4:	e8 9f e6 ff ff       	callq  1388 <Socket_Log@plt>
    2ce9:	8b 45 ec             	mov    -0x14(%rbp),%eax
    2cec:	eb 25                	jmp    2d13 <sckServer_rev+0x2cf>
    2cee:	48 8b 45 d0          	mov    -0x30(%rbp),%rax
    2cf2:	48 8b 55 f0          	mov    -0x10(%rbp),%rdx
    2cf6:	48 89 10             	mov    %rdx,(%rax)
    2cf9:	48 8b 45 c8          	mov    -0x38(%rbp),%rax
    2cfd:	8b 55 fc             	mov    -0x4(%rbp),%edx
    2d00:	89 10                	mov    %edx,(%rax)
    2d02:	8b 45 fc             	mov    -0x4(%rbp),%eax
    2d05:	48 98                	cltq   
    2d07:	48 03 45 f0          	add    -0x10(%rbp),%rax
    2d0b:	c6 00 00             	movb   $0x0,(%rax)
    2d0e:	b8 00 00 00 00       	mov    $0x0,%eax
    2d13:	c9                   	leaveq 
    2d14:	c3                   	retq   

0000000000002d15 <sckServer_close>:
    2d15:	55                   	push   %rbp
    2d16:	48 89 e5             	mov    %rsp,%rbp
    2d19:	48 83 ec 10          	sub    $0x10,%rsp
    2d1d:	89 7d fc             	mov    %edi,-0x4(%rbp)
    2d20:	8b 45 fc             	mov    -0x4(%rbp),%eax
    2d23:	89 c7                	mov    %eax,%edi
    2d25:	e8 ee e5 ff ff       	callq  1318 <close@plt>
    2d2a:	b8 00 00 00 00       	mov    $0x0,%eax
    2d2f:	c9                   	leaveq 
    2d30:	c3                   	retq   

0000000000002d31 <sckServer_destroy>:
    2d31:	55                   	push   %rbp
    2d32:	48 89 e5             	mov    %rsp,%rbp
    2d35:	b8 00 00 00 00       	mov    $0x0,%eax
    2d3a:	c9                   	leaveq 
    2d3b:	c3                   	retq   

0000000000002d3c <sckCltPool_init>:
    2d3c:	55                   	push   %rbp
    2d3d:	48 89 e5             	mov    %rsp,%rbp
    2d40:	53                   	push   %rbx
    2d41:	48 83 ec 38          	sub    $0x38,%rsp
    2d45:	48 89 7d d8          	mov    %rdi,-0x28(%rbp)
    2d49:	48 89 75 d0          	mov    %rsi,-0x30(%rbp)
    2d4d:	c7 45 e0 00 00 00 00 	movl   $0x0,-0x20(%rbp)
    2d54:	c7 45 e4 00 00 00 00 	movl   $0x0,-0x1c(%rbp)
    2d5b:	48 c7 45 e8 00 00 00 	movq   $0x0,-0x18(%rbp)
    2d62:	00 
    2d63:	bf e0 00 00 00       	mov    $0xe0,%edi
    2d68:	e8 fb e5 ff ff       	callq  1368 <malloc@plt>
    2d6d:	48 89 45 e8          	mov    %rax,-0x18(%rbp)
    2d71:	48 83 7d e8 00       	cmpq   $0x0,-0x18(%rbp)
    2d76:	75 3d                	jne    2db5 <sckCltPool_init+0x79>
    2d78:	c7 45 e0 bc 0b 00 00 	movl   $0xbbc,-0x20(%rbp)
    2d7f:	48 8b 05 4a 24 20 00 	mov    0x20244a(%rip),%rax        # 2051d0 <_DYNAMIC+0x1a0>
    2d86:	8b 40 10             	mov    0x10(%rax),%eax
    2d89:	8b 55 e0             	mov    -0x20(%rbp),%edx
    2d8c:	4c 8d 05 bd 15 00 00 	lea    0x15bd(%rip),%r8        # 4350 <_fini+0x338>
    2d93:	89 d1                	mov    %edx,%ecx
    2d95:	89 c2                	mov    %eax,%edx
    2d97:	be 39 00 00 00       	mov    $0x39,%esi
    2d9c:	48 8d 3d d6 15 00 00 	lea    0x15d6(%rip),%rdi        # 4379 <_fini+0x361>
    2da3:	b8 00 00 00 00       	mov    $0x0,%eax
    2da8:	e8 db e5 ff ff       	callq  1388 <Socket_Log@plt>
    2dad:	8b 45 e0             	mov    -0x20(%rbp),%eax
    2db0:	e9 20 04 00 00       	jmpq   31d5 <sckCltPool_init+0x499>
    2db5:	48 8b 45 e8          	mov    -0x18(%rbp),%rax
    2db9:	ba 08 00 00 00       	mov    $0x8,%edx
    2dbe:	be 00 00 00 00       	mov    $0x0,%esi
    2dc3:	48 89 c7             	mov    %rax,%rdi
    2dc6:	e8 3d e5 ff ff       	callq  1308 <memset@plt>
    2dcb:	48 8b 45 d0          	mov    -0x30(%rbp),%rax
    2dcf:	48 8b 55 e8          	mov    -0x18(%rbp),%rdx
    2dd3:	48 83 c2 1c          	add    $0x1c,%rdx
    2dd7:	48 89 c6             	mov    %rax,%rsi
    2dda:	48 89 d7             	mov    %rdx,%rdi
    2ddd:	e8 16 e7 ff ff       	callq  14f8 <strcpy@plt>
    2de2:	48 8b 45 d0          	mov    -0x30(%rbp),%rax
    2de6:	8b 50 40             	mov    0x40(%rax),%edx
    2de9:	48 8b 45 e8          	mov    -0x18(%rbp),%rax
    2ded:	89 90 9c 00 00 00    	mov    %edx,0x9c(%rax)
    2df3:	48 8b 45 d0          	mov    -0x30(%rbp),%rax
    2df7:	8b 50 48             	mov    0x48(%rax),%edx
    2dfa:	48 8b 45 e8          	mov    -0x18(%rbp),%rax
    2dfe:	89 90 a0 00 00 00    	mov    %edx,0xa0(%rax)
    2e04:	48 8b 45 d0          	mov    -0x30(%rbp),%rax
    2e08:	8b 50 4c             	mov    0x4c(%rax),%edx
    2e0b:	48 8b 45 e8          	mov    -0x18(%rbp),%rax
    2e0f:	89 90 a4 00 00 00    	mov    %edx,0xa4(%rax)
    2e15:	48 8b 45 d0          	mov    -0x30(%rbp),%rax
    2e19:	8b 50 50             	mov    0x50(%rax),%edx
    2e1c:	48 8b 45 e8          	mov    -0x18(%rbp),%rax
    2e20:	89 90 a8 00 00 00    	mov    %edx,0xa8(%rax)
    2e26:	48 8b 45 d0          	mov    -0x30(%rbp),%rax
    2e2a:	8b 50 44             	mov    0x44(%rax),%edx
    2e2d:	48 8b 45 e8          	mov    -0x18(%rbp),%rax
    2e31:	89 50 18             	mov    %edx,0x18(%rax)
    2e34:	48 8b 45 e8          	mov    -0x18(%rbp),%rax
    2e38:	c7 40 10 00 00 00 00 	movl   $0x0,0x10(%rax)
    2e3f:	48 8b 45 d0          	mov    -0x30(%rbp),%rax
    2e43:	8b 50 44             	mov    0x44(%rax),%edx
    2e46:	48 8b 45 e8          	mov    -0x18(%rbp),%rax
    2e4a:	89 50 14             	mov    %edx,0x14(%rax)
    2e4d:	48 8b 45 e8          	mov    -0x18(%rbp),%rax
    2e51:	c7 80 ac 00 00 00 01 	movl   $0x1,0xac(%rax)
    2e58:	00 00 00 
    2e5b:	48 8b 45 e8          	mov    -0x18(%rbp),%rax
    2e5f:	48 05 b0 00 00 00    	add    $0xb0,%rax
    2e65:	be 00 00 00 00       	mov    $0x0,%esi
    2e6a:	48 89 c7             	mov    %rax,%rdi
    2e6d:	e8 36 e5 ff ff       	callq  13a8 <pthread_mutex_init@plt>
    2e72:	48 8b 45 e8          	mov    -0x18(%rbp),%rax
    2e76:	48 05 b0 00 00 00    	add    $0xb0,%rax
    2e7c:	48 89 c7             	mov    %rax,%rdi
    2e7f:	e8 c4 e6 ff ff       	callq  1548 <pthread_mutex_lock@plt>
    2e84:	48 8b 45 e8          	mov    -0x18(%rbp),%rax
    2e88:	8b 40 18             	mov    0x18(%rax),%eax
    2e8b:	48 98                	cltq   
    2e8d:	48 c1 e0 02          	shl    $0x2,%rax
    2e91:	48 89 c7             	mov    %rax,%rdi
    2e94:	e8 cf e4 ff ff       	callq  1368 <malloc@plt>
    2e99:	48 89 c2             	mov    %rax,%rdx
    2e9c:	48 8b 45 e8          	mov    -0x18(%rbp),%rax
    2ea0:	48 89 10             	mov    %rdx,(%rax)
    2ea3:	48 8b 45 e8          	mov    -0x18(%rbp),%rax
    2ea7:	48 8b 00             	mov    (%rax),%rax
    2eaa:	48 85 c0             	test   %rax,%rax
    2ead:	75 3a                	jne    2ee9 <sckCltPool_init+0x1ad>
    2eaf:	c7 45 e0 bc 0b 00 00 	movl   $0xbbc,-0x20(%rbp)
    2eb6:	48 8b 05 13 23 20 00 	mov    0x202313(%rip),%rax        # 2051d0 <_DYNAMIC+0x1a0>
    2ebd:	8b 40 10             	mov    0x10(%rax),%eax
    2ec0:	8b 55 e0             	mov    -0x20(%rbp),%edx
    2ec3:	4c 8d 05 86 14 00 00 	lea    0x1486(%rip),%r8        # 4350 <_fini+0x338>
    2eca:	89 d1                	mov    %edx,%ecx
    2ecc:	89 c2                	mov    %eax,%edx
    2ece:	be 54 00 00 00       	mov    $0x54,%esi
    2ed3:	48 8d 3d 9f 14 00 00 	lea    0x149f(%rip),%rdi        # 4379 <_fini+0x361>
    2eda:	b8 00 00 00 00       	mov    $0x0,%eax
    2edf:	e8 a4 e4 ff ff       	callq  1388 <Socket_Log@plt>
    2ee4:	e9 4f 02 00 00       	jmpq   3138 <sckCltPool_init+0x3fc>
    2ee9:	48 8b 45 e8          	mov    -0x18(%rbp),%rax
    2eed:	8b 40 18             	mov    0x18(%rax),%eax
    2ef0:	48 98                	cltq   
    2ef2:	48 c1 e0 02          	shl    $0x2,%rax
    2ef6:	48 89 c7             	mov    %rax,%rdi
    2ef9:	e8 6a e4 ff ff       	callq  1368 <malloc@plt>
    2efe:	48 89 c2             	mov    %rax,%rdx
    2f01:	48 8b 45 e8          	mov    -0x18(%rbp),%rax
    2f05:	48 89 50 08          	mov    %rdx,0x8(%rax)
    2f09:	48 8b 45 e8          	mov    -0x18(%rbp),%rax
    2f0d:	48 8b 40 08          	mov    0x8(%rax),%rax
    2f11:	48 85 c0             	test   %rax,%rax
    2f14:	75 3a                	jne    2f50 <sckCltPool_init+0x214>
    2f16:	c7 45 e0 bc 0b 00 00 	movl   $0xbbc,-0x20(%rbp)
    2f1d:	48 8b 05 ac 22 20 00 	mov    0x2022ac(%rip),%rax        # 2051d0 <_DYNAMIC+0x1a0>
    2f24:	8b 40 10             	mov    0x10(%rax),%eax
    2f27:	8b 55 e0             	mov    -0x20(%rbp),%edx
    2f2a:	4c 8d 05 1f 14 00 00 	lea    0x141f(%rip),%r8        # 4350 <_fini+0x338>
    2f31:	89 d1                	mov    %edx,%ecx
    2f33:	89 c2                	mov    %eax,%edx
    2f35:	be 5b 00 00 00       	mov    $0x5b,%esi
    2f3a:	48 8d 3d 38 14 00 00 	lea    0x1438(%rip),%rdi        # 4379 <_fini+0x361>
    2f41:	b8 00 00 00 00       	mov    $0x0,%eax
    2f46:	e8 3d e4 ff ff       	callq  1388 <Socket_Log@plt>
    2f4b:	e9 e8 01 00 00       	jmpq   3138 <sckCltPool_init+0x3fc>
    2f50:	b8 00 00 00 00       	mov    $0x0,%eax
    2f55:	e8 ce e4 ff ff       	callq  1428 <sckClient_init@plt>
    2f5a:	89 45 e0             	mov    %eax,-0x20(%rbp)
    2f5d:	83 7d e0 00          	cmpl   $0x0,-0x20(%rbp)
    2f61:	74 1e                	je     2f81 <sckCltPool_init+0x245>
    2f63:	48 8d 05 22 14 00 00 	lea    0x1422(%rip),%rax        # 438c <_fini+0x374>
    2f6a:	8b 55 e0             	mov    -0x20(%rbp),%edx
    2f6d:	89 d6                	mov    %edx,%esi
    2f6f:	48 89 c7             	mov    %rax,%rdi
    2f72:	b8 00 00 00 00       	mov    $0x0,%eax
    2f77:	e8 7c e3 ff ff       	callq  12f8 <printf@plt>
    2f7c:	e9 b7 01 00 00       	jmpq   3138 <sckCltPool_init+0x3fc>
    2f81:	c7 45 e4 00 00 00 00 	movl   $0x0,-0x1c(%rbp)
    2f88:	e9 b5 00 00 00       	jmpq   3042 <sckCltPool_init+0x306>
    2f8d:	48 8b 45 e8          	mov    -0x18(%rbp),%rax
    2f91:	48 8b 00             	mov    (%rax),%rax
    2f94:	8b 55 e4             	mov    -0x1c(%rbp),%edx
    2f97:	48 63 d2             	movslq %edx,%rdx
    2f9a:	48 c1 e2 02          	shl    $0x2,%rdx
    2f9e:	48 8d 0c 10          	lea    (%rax,%rdx,1),%rcx
    2fa2:	48 8b 45 e8          	mov    -0x18(%rbp),%rax
    2fa6:	8b 90 a0 00 00 00    	mov    0xa0(%rax),%edx
    2fac:	48 8b 45 e8          	mov    -0x18(%rbp),%rax
    2fb0:	8b 80 9c 00 00 00    	mov    0x9c(%rax),%eax
    2fb6:	48 8b 5d e8          	mov    -0x18(%rbp),%rbx
    2fba:	48 83 c3 1c          	add    $0x1c,%rbx
    2fbe:	89 c6                	mov    %eax,%esi
    2fc0:	48 89 df             	mov    %rbx,%rdi
    2fc3:	e8 d0 e4 ff ff       	callq  1498 <sckClient_connect@plt>
    2fc8:	89 45 e0             	mov    %eax,-0x20(%rbp)
    2fcb:	83 7d e0 00          	cmpl   $0x0,-0x20(%rbp)
    2fcf:	74 30                	je     3001 <sckCltPool_init+0x2c5>
    2fd1:	48 8b 05 f8 21 20 00 	mov    0x2021f8(%rip),%rax        # 2051d0 <_DYNAMIC+0x1a0>
    2fd8:	8b 40 10             	mov    0x10(%rax),%eax
    2fdb:	8b 55 e0             	mov    -0x20(%rbp),%edx
    2fde:	4c 8d 05 c5 13 00 00 	lea    0x13c5(%rip),%r8        # 43aa <_fini+0x392>
    2fe5:	89 d1                	mov    %edx,%ecx
    2fe7:	89 c2                	mov    %eax,%edx
    2fe9:	be 6b 00 00 00       	mov    $0x6b,%esi
    2fee:	48 8d 3d 84 13 00 00 	lea    0x1384(%rip),%rdi        # 4379 <_fini+0x361>
    2ff5:	b8 00 00 00 00       	mov    $0x0,%eax
    2ffa:	e8 89 e3 ff ff       	callq  1388 <Socket_Log@plt>
    2fff:	eb 51                	jmp    3052 <sckCltPool_init+0x316>
    3001:	48 8b 45 e8          	mov    -0x18(%rbp),%rax
    3005:	48 8b 40 08          	mov    0x8(%rax),%rax
    3009:	8b 55 e4             	mov    -0x1c(%rbp),%edx
    300c:	48 63 d2             	movslq %edx,%rdx
    300f:	48 c1 e2 02          	shl    $0x2,%rdx
    3013:	48 01 d0             	add    %rdx,%rax
    3016:	c7 00 01 00 00 00    	movl   $0x1,(%rax)
    301c:	48 8b 45 e8          	mov    -0x18(%rbp),%rax
    3020:	8b 40 10             	mov    0x10(%rax),%eax
    3023:	8d 50 01             	lea    0x1(%rax),%edx
    3026:	48 8b 45 e8          	mov    -0x18(%rbp),%rax
    302a:	89 50 10             	mov    %edx,0x10(%rax)
    302d:	48 8b 45 e8          	mov    -0x18(%rbp),%rax
    3031:	8b 40 14             	mov    0x14(%rax),%eax
    3034:	8d 50 ff             	lea    -0x1(%rax),%edx
    3037:	48 8b 45 e8          	mov    -0x18(%rbp),%rax
    303b:	89 50 14             	mov    %edx,0x14(%rax)
    303e:	83 45 e4 01          	addl   $0x1,-0x1c(%rbp)
    3042:	48 8b 45 e8          	mov    -0x18(%rbp),%rax
    3046:	8b 40 18             	mov    0x18(%rax),%eax
    3049:	3b 45 e4             	cmp    -0x1c(%rbp),%eax
    304c:	0f 8f 3b ff ff ff    	jg     2f8d <sckCltPool_init+0x251>
    3052:	48 8b 45 e8          	mov    -0x18(%rbp),%rax
    3056:	8b 50 10             	mov    0x10(%rax),%edx
    3059:	48 8b 45 e8          	mov    -0x18(%rbp),%rax
    305d:	8b 40 18             	mov    0x18(%rax),%eax
    3060:	39 c2                	cmp    %eax,%edx
    3062:	0f 8d d0 00 00 00    	jge    3138 <sckCltPool_init+0x3fc>
    3068:	c7 45 e0 cc 0b 00 00 	movl   $0xbcc,-0x20(%rbp)
    306f:	48 8b 05 5a 21 20 00 	mov    0x20215a(%rip),%rax        # 2051d0 <_DYNAMIC+0x1a0>
    3076:	8b 40 10             	mov    0x10(%rax),%eax
    3079:	8b 55 e0             	mov    -0x20(%rbp),%edx
    307c:	4c 8d 05 44 13 00 00 	lea    0x1344(%rip),%r8        # 43c7 <_fini+0x3af>
    3083:	89 d1                	mov    %edx,%ecx
    3085:	89 c2                	mov    %eax,%edx
    3087:	be 79 00 00 00       	mov    $0x79,%esi
    308c:	48 8d 3d e6 12 00 00 	lea    0x12e6(%rip),%rdi        # 4379 <_fini+0x361>
    3093:	b8 00 00 00 00       	mov    $0x0,%eax
    3098:	e8 eb e2 ff ff       	callq  1388 <Socket_Log@plt>
    309d:	48 8b 45 e8          	mov    -0x18(%rbp),%rax
    30a1:	8b 58 18             	mov    0x18(%rax),%ebx
    30a4:	48 8b 45 e8          	mov    -0x18(%rbp),%rax
    30a8:	8b 48 10             	mov    0x10(%rax),%ecx
    30ab:	48 8b 05 1e 21 20 00 	mov    0x20211e(%rip),%rax        # 2051d0 <_DYNAMIC+0x1a0>
    30b2:	8b 40 10             	mov    0x10(%rax),%eax
    30b5:	8b 75 e0             	mov    -0x20(%rbp),%esi
    30b8:	8b 55 e0             	mov    -0x20(%rbp),%edx
    30bb:	89 5c 24 08          	mov    %ebx,0x8(%rsp)
    30bf:	89 0c 24             	mov    %ecx,(%rsp)
    30c2:	41 89 f1             	mov    %esi,%r9d
    30c5:	4c 8d 05 1c 13 00 00 	lea    0x131c(%rip),%r8        # 43e8 <_fini+0x3d0>
    30cc:	89 d1                	mov    %edx,%ecx
    30ce:	89 c2                	mov    %eax,%edx
    30d0:	be 7a 00 00 00       	mov    $0x7a,%esi
    30d5:	48 8d 3d 9d 12 00 00 	lea    0x129d(%rip),%rdi        # 4379 <_fini+0x361>
    30dc:	b8 00 00 00 00       	mov    $0x0,%eax
    30e1:	e8 a2 e2 ff ff       	callq  1388 <Socket_Log@plt>
    30e6:	c7 45 e4 00 00 00 00 	movl   $0x0,-0x1c(%rbp)
    30ed:	eb 3d                	jmp    312c <sckCltPool_init+0x3f0>
    30ef:	48 8b 45 e8          	mov    -0x18(%rbp),%rax
    30f3:	48 8b 40 08          	mov    0x8(%rax),%rax
    30f7:	8b 55 e4             	mov    -0x1c(%rbp),%edx
    30fa:	48 63 d2             	movslq %edx,%rdx
    30fd:	48 c1 e2 02          	shl    $0x2,%rdx
    3101:	48 01 d0             	add    %rdx,%rax
    3104:	8b 00                	mov    (%rax),%eax
    3106:	83 f8 01             	cmp    $0x1,%eax
    3109:	75 1d                	jne    3128 <sckCltPool_init+0x3ec>
    310b:	48 8b 45 e8          	mov    -0x18(%rbp),%rax
    310f:	48 8b 00             	mov    (%rax),%rax
    3112:	8b 55 e4             	mov    -0x1c(%rbp),%edx
    3115:	48 63 d2             	movslq %edx,%rdx
    3118:	48 c1 e2 02          	shl    $0x2,%rdx
    311c:	48 01 d0             	add    %rdx,%rax
    311f:	8b 00                	mov    (%rax),%eax
    3121:	89 c7                	mov    %eax,%edi
    3123:	e8 20 e2 ff ff       	callq  1348 <sckClient_closeconn@plt>
    3128:	83 45 e4 01          	addl   $0x1,-0x1c(%rbp)
    312c:	48 8b 45 e8          	mov    -0x18(%rbp),%rax
    3130:	8b 40 18             	mov    0x18(%rax),%eax
    3133:	3b 45 e4             	cmp    -0x1c(%rbp),%eax
    3136:	7f b7                	jg     30ef <sckCltPool_init+0x3b3>
    3138:	48 8b 45 e8          	mov    -0x18(%rbp),%rax
    313c:	48 05 b0 00 00 00    	add    $0xb0,%rax
    3142:	48 89 c7             	mov    %rax,%rdi
    3145:	e8 5e e4 ff ff       	callq  15a8 <pthread_mutex_unlock@plt>
    314a:	83 7d e0 00          	cmpl   $0x0,-0x20(%rbp)
    314e:	74 77                	je     31c7 <sckCltPool_init+0x48b>
    3150:	48 8b 45 e8          	mov    -0x18(%rbp),%rax
    3154:	48 8b 00             	mov    (%rax),%rax
    3157:	48 85 c0             	test   %rax,%rax
    315a:	74 0f                	je     316b <sckCltPool_init+0x42f>
    315c:	48 8b 45 e8          	mov    -0x18(%rbp),%rax
    3160:	48 8b 00             	mov    (%rax),%rax
    3163:	48 89 c7             	mov    %rax,%rdi
    3166:	e8 5d e2 ff ff       	callq  13c8 <free@plt>
    316b:	48 8b 45 e8          	mov    -0x18(%rbp),%rax
    316f:	48 8b 40 08          	mov    0x8(%rax),%rax
    3173:	48 85 c0             	test   %rax,%rax
    3176:	74 10                	je     3188 <sckCltPool_init+0x44c>
    3178:	48 8b 45 e8          	mov    -0x18(%rbp),%rax
    317c:	48 8b 40 08          	mov    0x8(%rax),%rax
    3180:	48 89 c7             	mov    %rax,%rdi
    3183:	e8 40 e2 ff ff       	callq  13c8 <free@plt>
    3188:	48 8b 45 e8          	mov    -0x18(%rbp),%rax
    318c:	48 89 c7             	mov    %rax,%rdi
    318f:	e8 34 e2 ff ff       	callq  13c8 <free@plt>
    3194:	48 8b 05 35 20 20 00 	mov    0x202035(%rip),%rax        # 2051d0 <_DYNAMIC+0x1a0>
    319b:	8b 40 10             	mov    0x10(%rax),%eax
    319e:	8b 55 e0             	mov    -0x20(%rbp),%edx
    31a1:	4c 8d 05 98 12 00 00 	lea    0x1298(%rip),%r8        # 4440 <_fini+0x428>
    31a8:	89 d1                	mov    %edx,%ecx
    31aa:	89 c2                	mov    %eax,%edx
    31ac:	be 8b 00 00 00       	mov    $0x8b,%esi
    31b1:	48 8d 3d c1 11 00 00 	lea    0x11c1(%rip),%rdi        # 4379 <_fini+0x361>
    31b8:	b8 00 00 00 00       	mov    $0x0,%eax
    31bd:	e8 c6 e1 ff ff       	callq  1388 <Socket_Log@plt>
    31c2:	8b 45 e0             	mov    -0x20(%rbp),%eax
    31c5:	eb 0e                	jmp    31d5 <sckCltPool_init+0x499>
    31c7:	48 8b 45 d8          	mov    -0x28(%rbp),%rax
    31cb:	48 8b 55 e8          	mov    -0x18(%rbp),%rdx
    31cf:	48 89 10             	mov    %rdx,(%rax)
    31d2:	8b 45 e0             	mov    -0x20(%rbp),%eax
    31d5:	48 83 c4 38          	add    $0x38,%rsp
    31d9:	5b                   	pop    %rbx
    31da:	c9                   	leaveq 
    31db:	c3                   	retq   

00000000000031dc <sckCltPool_getConnet>:
    31dc:	55                   	push   %rbp
    31dd:	48 89 e5             	mov    %rsp,%rbp
    31e0:	53                   	push   %rbx
    31e1:	48 83 ec 28          	sub    $0x28,%rsp
    31e5:	48 89 7d d8          	mov    %rdi,-0x28(%rbp)
    31e9:	48 89 75 d0          	mov    %rsi,-0x30(%rbp)
    31ed:	c7 45 e4 00 00 00 00 	movl   $0x0,-0x1c(%rbp)
    31f4:	48 c7 45 e8 00 00 00 	movq   $0x0,-0x18(%rbp)
    31fb:	00 
    31fc:	48 83 7d d8 00       	cmpq   $0x0,-0x28(%rbp)
    3201:	74 07                	je     320a <sckCltPool_getConnet+0x2e>
    3203:	48 83 7d d0 00       	cmpq   $0x0,-0x30(%rbp)
    3208:	75 3d                	jne    3247 <sckCltPool_getConnet+0x6b>
    320a:	c7 45 e4 b9 0b 00 00 	movl   $0xbb9,-0x1c(%rbp)
    3211:	48 8b 05 b8 1f 20 00 	mov    0x201fb8(%rip),%rax        # 2051d0 <_DYNAMIC+0x1a0>
    3218:	8b 40 10             	mov    0x10(%rax),%eax
    321b:	8b 55 e4             	mov    -0x1c(%rbp),%edx
    321e:	4c 8d 05 3b 12 00 00 	lea    0x123b(%rip),%r8        # 4460 <_fini+0x448>
    3225:	89 d1                	mov    %edx,%ecx
    3227:	89 c2                	mov    %eax,%edx
    3229:	be 9d 00 00 00       	mov    $0x9d,%esi
    322e:	48 8d 3d 44 11 00 00 	lea    0x1144(%rip),%rdi        # 4379 <_fini+0x361>
    3235:	b8 00 00 00 00       	mov    $0x0,%eax
    323a:	e8 49 e1 ff ff       	callq  1388 <Socket_Log@plt>
    323f:	8b 45 e4             	mov    -0x1c(%rbp),%eax
    3242:	e9 bf 02 00 00       	jmpq   3506 <sckCltPool_getConnet+0x32a>
    3247:	48 8b 45 d8          	mov    -0x28(%rbp),%rax
    324b:	48 89 45 e8          	mov    %rax,-0x18(%rbp)
    324f:	48 8b 45 e8          	mov    -0x18(%rbp),%rax
    3253:	48 05 b0 00 00 00    	add    $0xb0,%rax
    3259:	48 89 c7             	mov    %rax,%rdi
    325c:	e8 e7 e2 ff ff       	callq  1548 <pthread_mutex_lock@plt>
    3261:	48 8b 45 e8          	mov    -0x18(%rbp),%rax
    3265:	8b 80 d8 00 00 00    	mov    0xd8(%rax),%eax
    326b:	83 f8 01             	cmp    $0x1,%eax
    326e:	75 3a                	jne    32aa <sckCltPool_getConnet+0xce>
    3270:	c7 45 e4 cd 0b 00 00 	movl   $0xbcd,-0x1c(%rbp)
    3277:	48 8b 05 52 1f 20 00 	mov    0x201f52(%rip),%rax        # 2051d0 <_DYNAMIC+0x1a0>
    327e:	8b 40 10             	mov    0x10(%rax),%eax
    3281:	8b 55 e4             	mov    -0x1c(%rbp),%edx
    3284:	4c 8d 05 1d 12 00 00 	lea    0x121d(%rip),%r8        # 44a8 <_fini+0x490>
    328b:	89 d1                	mov    %edx,%ecx
    328d:	89 c2                	mov    %eax,%edx
    328f:	be a9 00 00 00       	mov    $0xa9,%esi
    3294:	48 8d 3d de 10 00 00 	lea    0x10de(%rip),%rdi        # 4379 <_fini+0x361>
    329b:	b8 00 00 00 00       	mov    $0x0,%eax
    32a0:	e8 e3 e0 ff ff       	callq  1388 <Socket_Log@plt>
    32a5:	e9 10 02 00 00       	jmpq   34ba <sckCltPool_getConnet+0x2de>
    32aa:	48 8b 45 e8          	mov    -0x18(%rbp),%rax
    32ae:	8b 40 10             	mov    0x10(%rax),%eax
    32b1:	85 c0                	test   %eax,%eax
    32b3:	0f 85 9f 00 00 00    	jne    3358 <sckCltPool_getConnet+0x17c>
    32b9:	48 8b 45 e8          	mov    -0x18(%rbp),%rax
    32bd:	8b 80 ac 00 00 00    	mov    0xac(%rax),%eax
    32c3:	89 c7                	mov    %eax,%edi
    32c5:	e8 8e e1 ff ff       	callq  1458 <usleep@plt>
    32ca:	48 8b 45 e8          	mov    -0x18(%rbp),%rax
    32ce:	8b 40 10             	mov    0x10(%rax),%eax
    32d1:	85 c0                	test   %eax,%eax
    32d3:	75 3a                	jne    330f <sckCltPool_getConnet+0x133>
    32d5:	c7 45 e4 ce 0b 00 00 	movl   $0xbce,-0x1c(%rbp)
    32dc:	48 8b 05 ed 1e 20 00 	mov    0x201eed(%rip),%rax        # 2051d0 <_DYNAMIC+0x1a0>
    32e3:	8b 40 10             	mov    0x10(%rax),%eax
    32e6:	8b 55 e4             	mov    -0x1c(%rbp),%edx
    32e9:	4c 8d 05 e8 11 00 00 	lea    0x11e8(%rip),%r8        # 44d8 <_fini+0x4c0>
    32f0:	89 d1                	mov    %edx,%ecx
    32f2:	89 c2                	mov    %eax,%edx
    32f4:	be b5 00 00 00       	mov    $0xb5,%esi
    32f9:	48 8d 3d 79 10 00 00 	lea    0x1079(%rip),%rdi        # 4379 <_fini+0x361>
    3300:	b8 00 00 00 00       	mov    $0x0,%eax
    3305:	e8 7e e0 ff ff       	callq  1388 <Socket_Log@plt>
    330a:	e9 ab 01 00 00       	jmpq   34ba <sckCltPool_getConnet+0x2de>
    330f:	48 8b 45 e8          	mov    -0x18(%rbp),%rax
    3313:	8b 80 d8 00 00 00    	mov    0xd8(%rax),%eax
    3319:	83 f8 01             	cmp    $0x1,%eax
    331c:	75 3a                	jne    3358 <sckCltPool_getConnet+0x17c>
    331e:	c7 45 e4 cd 0b 00 00 	movl   $0xbcd,-0x1c(%rbp)
    3325:	48 8b 05 a4 1e 20 00 	mov    0x201ea4(%rip),%rax        # 2051d0 <_DYNAMIC+0x1a0>
    332c:	8b 40 10             	mov    0x10(%rax),%eax
    332f:	8b 55 e4             	mov    -0x1c(%rbp),%edx
    3332:	4c 8d 05 6f 11 00 00 	lea    0x116f(%rip),%r8        # 44a8 <_fini+0x490>
    3339:	89 d1                	mov    %edx,%ecx
    333b:	89 c2                	mov    %eax,%edx
    333d:	be bd 00 00 00       	mov    $0xbd,%esi
    3342:	48 8d 3d 30 10 00 00 	lea    0x1030(%rip),%rdi        # 4379 <_fini+0x361>
    3349:	b8 00 00 00 00       	mov    $0x0,%eax
    334e:	e8 35 e0 ff ff       	callq  1388 <Socket_Log@plt>
    3353:	e9 62 01 00 00       	jmpq   34ba <sckCltPool_getConnet+0x2de>
    3358:	48 8b 45 e8          	mov    -0x18(%rbp),%rax
    335c:	48 8b 50 08          	mov    0x8(%rax),%rdx
    3360:	48 8b 45 e8          	mov    -0x18(%rbp),%rax
    3364:	8b 40 10             	mov    0x10(%rax),%eax
    3367:	48 98                	cltq   
    3369:	48 83 e8 01          	sub    $0x1,%rax
    336d:	48 c1 e0 02          	shl    $0x2,%rax
    3371:	48 8d 04 02          	lea    (%rdx,%rax,1),%rax
    3375:	8b 00                	mov    (%rax),%eax
    3377:	85 c0                	test   %eax,%eax
    3379:	0f 85 3b 01 00 00    	jne    34ba <sckCltPool_getConnet+0x2de>
    337f:	48 8b 45 e8          	mov    -0x18(%rbp),%rax
    3383:	48 8b 10             	mov    (%rax),%rdx
    3386:	48 8b 45 e8          	mov    -0x18(%rbp),%rax
    338a:	8b 40 10             	mov    0x10(%rax),%eax
    338d:	48 98                	cltq   
    338f:	48 83 e8 01          	sub    $0x1,%rax
    3393:	48 c1 e0 02          	shl    $0x2,%rax
    3397:	48 8d 04 02          	lea    (%rdx,%rax,1),%rax
    339b:	8b 00                	mov    (%rax),%eax
    339d:	85 c0                	test   %eax,%eax
    339f:	75 7e                	jne    341f <sckCltPool_getConnet+0x243>
    33a1:	48 8b 45 e8          	mov    -0x18(%rbp),%rax
    33a5:	48 8b 10             	mov    (%rax),%rdx
    33a8:	48 8b 45 e8          	mov    -0x18(%rbp),%rax
    33ac:	8b 40 10             	mov    0x10(%rax),%eax
    33af:	48 98                	cltq   
    33b1:	48 83 e8 01          	sub    $0x1,%rax
    33b5:	48 c1 e0 02          	shl    $0x2,%rax
    33b9:	48 8d 04 02          	lea    (%rdx,%rax,1),%rax
    33bd:	8b 00                	mov    (%rax),%eax
    33bf:	89 c7                	mov    %eax,%edi
    33c1:	e8 82 df ff ff       	callq  1348 <sckClient_closeconn@plt>
    33c6:	89 45 e4             	mov    %eax,-0x1c(%rbp)
    33c9:	83 7d e4 00          	cmpl   $0x0,-0x1c(%rbp)
    33cd:	74 50                	je     341f <sckCltPool_getConnet+0x243>
    33cf:	48 8b 05 fa 1d 20 00 	mov    0x201dfa(%rip),%rax        # 2051d0 <_DYNAMIC+0x1a0>
    33d6:	8b 40 10             	mov    0x10(%rax),%eax
    33d9:	8b 55 e4             	mov    -0x1c(%rbp),%edx
    33dc:	4c 8d 05 3d 11 00 00 	lea    0x113d(%rip),%r8        # 4520 <_fini+0x508>
    33e3:	89 d1                	mov    %edx,%ecx
    33e5:	89 c2                	mov    %eax,%edx
    33e7:	be cb 00 00 00       	mov    $0xcb,%esi
    33ec:	48 8d 3d 86 0f 00 00 	lea    0xf86(%rip),%rdi        # 4379 <_fini+0x361>
    33f3:	b8 00 00 00 00       	mov    $0x0,%eax
    33f8:	e8 8b df ff ff       	callq  1388 <Socket_Log@plt>
    33fd:	48 8b 45 e8          	mov    -0x18(%rbp),%rax
    3401:	48 8b 10             	mov    (%rax),%rdx
    3404:	48 8b 45 e8          	mov    -0x18(%rbp),%rax
    3408:	8b 40 10             	mov    0x10(%rax),%eax
    340b:	48 98                	cltq   
    340d:	48 83 e8 01          	sub    $0x1,%rax
    3411:	48 c1 e0 02          	shl    $0x2,%rax
    3415:	48 8d 04 02          	lea    (%rdx,%rax,1),%rax
    3419:	c7 00 00 00 00 00    	movl   $0x0,(%rax)
    341f:	48 8b 45 e8          	mov    -0x18(%rbp),%rax
    3423:	48 8b 10             	mov    (%rax),%rdx
    3426:	48 8b 45 e8          	mov    -0x18(%rbp),%rax
    342a:	8b 40 10             	mov    0x10(%rax),%eax
    342d:	48 98                	cltq   
    342f:	48 83 e8 01          	sub    $0x1,%rax
    3433:	48 c1 e0 02          	shl    $0x2,%rax
    3437:	48 8d 0c 02          	lea    (%rdx,%rax,1),%rcx
    343b:	48 8b 45 e8          	mov    -0x18(%rbp),%rax
    343f:	8b 90 a0 00 00 00    	mov    0xa0(%rax),%edx
    3445:	48 8b 45 e8          	mov    -0x18(%rbp),%rax
    3449:	8b 80 9c 00 00 00    	mov    0x9c(%rax),%eax
    344f:	48 8b 5d e8          	mov    -0x18(%rbp),%rbx
    3453:	48 83 c3 1c          	add    $0x1c,%rbx
    3457:	89 c6                	mov    %eax,%esi
    3459:	48 89 df             	mov    %rbx,%rdi
    345c:	e8 37 e0 ff ff       	callq  1498 <sckClient_connect@plt>
    3461:	89 45 e4             	mov    %eax,-0x1c(%rbp)
    3464:	83 7d e4 00          	cmpl   $0x0,-0x1c(%rbp)
    3468:	74 50                	je     34ba <sckCltPool_getConnet+0x2de>
    346a:	48 8b 05 5f 1d 20 00 	mov    0x201d5f(%rip),%rax        # 2051d0 <_DYNAMIC+0x1a0>
    3471:	8b 40 10             	mov    0x10(%rax),%eax
    3474:	8b 55 e4             	mov    -0x1c(%rbp),%edx
    3477:	4c 8d 05 e2 10 00 00 	lea    0x10e2(%rip),%r8        # 4560 <_fini+0x548>
    347e:	89 d1                	mov    %edx,%ecx
    3480:	89 c2                	mov    %eax,%edx
    3482:	be d5 00 00 00       	mov    $0xd5,%esi
    3487:	48 8d 3d eb 0e 00 00 	lea    0xeeb(%rip),%rdi        # 4379 <_fini+0x361>
    348e:	b8 00 00 00 00       	mov    $0x0,%eax
    3493:	e8 f0 de ff ff       	callq  1388 <Socket_Log@plt>
    3498:	48 8b 45 e8          	mov    -0x18(%rbp),%rax
    349c:	48 8b 10             	mov    (%rax),%rdx
    349f:	48 8b 45 e8          	mov    -0x18(%rbp),%rax
    34a3:	8b 40 10             	mov    0x10(%rax),%eax
    34a6:	48 98                	cltq   
    34a8:	48 83 e8 01          	sub    $0x1,%rax
    34ac:	48 c1 e0 02          	shl    $0x2,%rax
    34b0:	48 8d 04 02          	lea    (%rdx,%rax,1),%rax
    34b4:	c7 00 00 00 00 00    	movl   $0x0,(%rax)
    34ba:	83 7d e4 00          	cmpl   $0x0,-0x1c(%rbp)
    34be:	75 31                	jne    34f1 <sckCltPool_getConnet+0x315>
    34c0:	48 8b 45 e8          	mov    -0x18(%rbp),%rax
    34c4:	48 8b 10             	mov    (%rax),%rdx
    34c7:	48 8b 45 e8          	mov    -0x18(%rbp),%rax
    34cb:	8b 40 10             	mov    0x10(%rax),%eax
    34ce:	8d 48 ff             	lea    -0x1(%rax),%ecx
    34d1:	48 8b 45 e8          	mov    -0x18(%rbp),%rax
    34d5:	89 48 10             	mov    %ecx,0x10(%rax)
    34d8:	48 8b 45 e8          	mov    -0x18(%rbp),%rax
    34dc:	8b 40 10             	mov    0x10(%rax),%eax
    34df:	48 98                	cltq   
    34e1:	48 c1 e0 02          	shl    $0x2,%rax
    34e5:	48 8d 04 02          	lea    (%rdx,%rax,1),%rax
    34e9:	8b 10                	mov    (%rax),%edx
    34eb:	48 8b 45 d0          	mov    -0x30(%rbp),%rax
    34ef:	89 10                	mov    %edx,(%rax)
    34f1:	48 8b 45 e8          	mov    -0x18(%rbp),%rax
    34f5:	48 05 b0 00 00 00    	add    $0xb0,%rax
    34fb:	48 89 c7             	mov    %rax,%rdi
    34fe:	e8 a5 e0 ff ff       	callq  15a8 <pthread_mutex_unlock@plt>
    3503:	8b 45 e4             	mov    -0x1c(%rbp),%eax
    3506:	48 83 c4 28          	add    $0x28,%rsp
    350a:	5b                   	pop    %rbx
    350b:	c9                   	leaveq 
    350c:	c3                   	retq   

000000000000350d <sckCltPool_send>:
    350d:	55                   	push   %rbp
    350e:	48 89 e5             	mov    %rsp,%rbp
    3511:	53                   	push   %rbx
    3512:	48 83 ec 38          	sub    $0x38,%rsp
    3516:	48 89 7d d8          	mov    %rdi,-0x28(%rbp)
    351a:	89 75 d4             	mov    %esi,-0x2c(%rbp)
    351d:	48 89 55 c8          	mov    %rdx,-0x38(%rbp)
    3521:	89 4d c4             	mov    %ecx,-0x3c(%rbp)
    3524:	c7 45 e4 00 00 00 00 	movl   $0x0,-0x1c(%rbp)
    352b:	48 c7 45 e8 00 00 00 	movq   $0x0,-0x18(%rbp)
    3532:	00 
    3533:	48 83 7d d8 00       	cmpq   $0x0,-0x28(%rbp)
    3538:	74 13                	je     354d <sckCltPool_send+0x40>
    353a:	83 7d d4 00          	cmpl   $0x0,-0x2c(%rbp)
    353e:	78 0d                	js     354d <sckCltPool_send+0x40>
    3540:	48 83 7d c8 00       	cmpq   $0x0,-0x38(%rbp)
    3545:	74 06                	je     354d <sckCltPool_send+0x40>
    3547:	83 7d c4 00          	cmpl   $0x0,-0x3c(%rbp)
    354b:	7f 3a                	jg     3587 <sckCltPool_send+0x7a>
    354d:	c7 45 e4 b9 0b 00 00 	movl   $0xbb9,-0x1c(%rbp)
    3554:	48 8b 05 75 1c 20 00 	mov    0x201c75(%rip),%rax        # 2051d0 <_DYNAMIC+0x1a0>
    355b:	8b 40 10             	mov    0x10(%rax),%eax
    355e:	8b 55 e4             	mov    -0x1c(%rbp),%edx
    3561:	4c 8d 05 38 10 00 00 	lea    0x1038(%rip),%r8        # 45a0 <_fini+0x588>
    3568:	89 d1                	mov    %edx,%ecx
    356a:	89 c2                	mov    %eax,%edx
    356c:	be ef 00 00 00       	mov    $0xef,%esi
    3571:	48 8d 3d 01 0e 00 00 	lea    0xe01(%rip),%rdi        # 4379 <_fini+0x361>
    3578:	b8 00 00 00 00       	mov    $0x0,%eax
    357d:	e8 06 de ff ff       	callq  1388 <Socket_Log@plt>
    3582:	8b 45 e4             	mov    -0x1c(%rbp),%eax
    3585:	eb 64                	jmp    35eb <sckCltPool_send+0xde>
    3587:	48 8b 45 d8          	mov    -0x28(%rbp),%rax
    358b:	48 89 45 e8          	mov    %rax,-0x18(%rbp)
    358f:	48 8b 45 e8          	mov    -0x18(%rbp),%rax
    3593:	8b 98 a4 00 00 00    	mov    0xa4(%rax),%ebx
    3599:	8b 4d c4             	mov    -0x3c(%rbp),%ecx
    359c:	48 8b 55 c8          	mov    -0x38(%rbp),%rdx
    35a0:	8b 45 d4             	mov    -0x2c(%rbp),%eax
    35a3:	89 de                	mov    %ebx,%esi
    35a5:	89 c7                	mov    %eax,%edi
    35a7:	e8 2c de ff ff       	callq  13d8 <sckClient_send@plt>
    35ac:	89 45 e4             	mov    %eax,-0x1c(%rbp)
    35af:	83 7d e4 00          	cmpl   $0x0,-0x1c(%rbp)
    35b3:	74 33                	je     35e8 <sckCltPool_send+0xdb>
    35b5:	48 8b 05 14 1c 20 00 	mov    0x201c14(%rip),%rax        # 2051d0 <_DYNAMIC+0x1a0>
    35bc:	8b 40 10             	mov    0x10(%rax),%eax
    35bf:	8b 55 e4             	mov    -0x1c(%rbp),%edx
    35c2:	4c 8d 05 2b 10 00 00 	lea    0x102b(%rip),%r8        # 45f4 <_fini+0x5dc>
    35c9:	89 d1                	mov    %edx,%ecx
    35cb:	89 c2                	mov    %eax,%edx
    35cd:	be f8 00 00 00       	mov    $0xf8,%esi
    35d2:	48 8d 3d a0 0d 00 00 	lea    0xda0(%rip),%rdi        # 4379 <_fini+0x361>
    35d9:	b8 00 00 00 00       	mov    $0x0,%eax
    35de:	e8 a5 dd ff ff       	callq  1388 <Socket_Log@plt>
    35e3:	8b 45 e4             	mov    -0x1c(%rbp),%eax
    35e6:	eb 03                	jmp    35eb <sckCltPool_send+0xde>
    35e8:	8b 45 e4             	mov    -0x1c(%rbp),%eax
    35eb:	48 83 c4 38          	add    $0x38,%rsp
    35ef:	5b                   	pop    %rbx
    35f0:	c9                   	leaveq 
    35f1:	c3                   	retq   

00000000000035f2 <sckCltPool_rev>:
    35f2:	55                   	push   %rbp
    35f3:	48 89 e5             	mov    %rsp,%rbp
    35f6:	53                   	push   %rbx
    35f7:	48 83 ec 38          	sub    $0x38,%rsp
    35fb:	48 89 7d d8          	mov    %rdi,-0x28(%rbp)
    35ff:	89 75 d4             	mov    %esi,-0x2c(%rbp)
    3602:	48 89 55 c8          	mov    %rdx,-0x38(%rbp)
    3606:	48 89 4d c0          	mov    %rcx,-0x40(%rbp)
    360a:	c7 45 e4 00 00 00 00 	movl   $0x0,-0x1c(%rbp)
    3611:	48 c7 45 e8 00 00 00 	movq   $0x0,-0x18(%rbp)
    3618:	00 
    3619:	48 83 7d d8 00       	cmpq   $0x0,-0x28(%rbp)
    361e:	74 14                	je     3634 <sckCltPool_rev+0x42>
    3620:	83 7d d4 00          	cmpl   $0x0,-0x2c(%rbp)
    3624:	78 0e                	js     3634 <sckCltPool_rev+0x42>
    3626:	48 83 7d c8 00       	cmpq   $0x0,-0x38(%rbp)
    362b:	74 07                	je     3634 <sckCltPool_rev+0x42>
    362d:	48 83 7d c0 00       	cmpq   $0x0,-0x40(%rbp)
    3632:	75 3a                	jne    366e <sckCltPool_rev+0x7c>
    3634:	c7 45 e4 b9 0b 00 00 	movl   $0xbb9,-0x1c(%rbp)
    363b:	48 8b 05 8e 1b 20 00 	mov    0x201b8e(%rip),%rax        # 2051d0 <_DYNAMIC+0x1a0>
    3642:	8b 40 10             	mov    0x10(%rax),%eax
    3645:	8b 55 e4             	mov    -0x1c(%rbp),%edx
    3648:	4c 8d 05 c1 0f 00 00 	lea    0xfc1(%rip),%r8        # 4610 <_fini+0x5f8>
    364f:	89 d1                	mov    %edx,%ecx
    3651:	89 c2                	mov    %eax,%edx
    3653:	be 08 01 00 00       	mov    $0x108,%esi
    3658:	48 8d 3d 1a 0d 00 00 	lea    0xd1a(%rip),%rdi        # 4379 <_fini+0x361>
    365f:	b8 00 00 00 00       	mov    $0x0,%eax
    3664:	e8 1f dd ff ff       	callq  1388 <Socket_Log@plt>
    3669:	8b 45 e4             	mov    -0x1c(%rbp),%eax
    366c:	eb 65                	jmp    36d3 <sckCltPool_rev+0xe1>
    366e:	48 8b 45 d8          	mov    -0x28(%rbp),%rax
    3672:	48 89 45 e8          	mov    %rax,-0x18(%rbp)
    3676:	48 8b 45 e8          	mov    -0x18(%rbp),%rax
    367a:	8b 98 a8 00 00 00    	mov    0xa8(%rax),%ebx
    3680:	48 8b 4d c0          	mov    -0x40(%rbp),%rcx
    3684:	48 8b 55 c8          	mov    -0x38(%rbp),%rdx
    3688:	8b 45 d4             	mov    -0x2c(%rbp),%eax
    368b:	89 de                	mov    %ebx,%esi
    368d:	89 c7                	mov    %eax,%edi
    368f:	e8 74 de ff ff       	callq  1508 <sckClient_rev@plt>
    3694:	89 45 e4             	mov    %eax,-0x1c(%rbp)
    3697:	83 7d e4 00          	cmpl   $0x0,-0x1c(%rbp)
    369b:	74 33                	je     36d0 <sckCltPool_rev+0xde>
    369d:	48 8b 05 2c 1b 20 00 	mov    0x201b2c(%rip),%rax        # 2051d0 <_DYNAMIC+0x1a0>
    36a4:	8b 40 10             	mov    0x10(%rax),%eax
    36a7:	8b 55 e4             	mov    -0x1c(%rbp),%edx
    36aa:	4c 8d 05 ba 0f 00 00 	lea    0xfba(%rip),%r8        # 466b <_fini+0x653>
    36b1:	89 d1                	mov    %edx,%ecx
    36b3:	89 c2                	mov    %eax,%edx
    36b5:	be 11 01 00 00       	mov    $0x111,%esi
    36ba:	48 8d 3d b8 0c 00 00 	lea    0xcb8(%rip),%rdi        # 4379 <_fini+0x361>
    36c1:	b8 00 00 00 00       	mov    $0x0,%eax
    36c6:	e8 bd dc ff ff       	callq  1388 <Socket_Log@plt>
    36cb:	8b 45 e4             	mov    -0x1c(%rbp),%eax
    36ce:	eb 03                	jmp    36d3 <sckCltPool_rev+0xe1>
    36d0:	8b 45 e4             	mov    -0x1c(%rbp),%eax
    36d3:	48 83 c4 38          	add    $0x38,%rsp
    36d7:	5b                   	pop    %rbx
    36d8:	c9                   	leaveq 
    36d9:	c3                   	retq   

00000000000036da <sckCltPool_putConnet>:
    36da:	55                   	push   %rbp
    36db:	48 89 e5             	mov    %rsp,%rbp
    36de:	53                   	push   %rbx
    36df:	48 83 ec 38          	sub    $0x38,%rsp
    36e3:	48 89 7d c8          	mov    %rdi,-0x38(%rbp)
    36e7:	89 75 c4             	mov    %esi,-0x3c(%rbp)
    36ea:	89 55 c0             	mov    %edx,-0x40(%rbp)
    36ed:	c7 45 e0 00 00 00 00 	movl   $0x0,-0x20(%rbp)
    36f4:	c7 45 e4 00 00 00 00 	movl   $0x0,-0x1c(%rbp)
    36fb:	48 c7 45 e8 00 00 00 	movq   $0x0,-0x18(%rbp)
    3702:	00 
    3703:	48 83 7d c8 00       	cmpq   $0x0,-0x38(%rbp)
    3708:	74 06                	je     3710 <sckCltPool_putConnet+0x36>
    370a:	83 7d c4 00          	cmpl   $0x0,-0x3c(%rbp)
    370e:	79 3a                	jns    374a <sckCltPool_putConnet+0x70>
    3710:	c7 45 e0 b9 0b 00 00 	movl   $0xbb9,-0x20(%rbp)
    3717:	48 8b 05 b2 1a 20 00 	mov    0x201ab2(%rip),%rax        # 2051d0 <_DYNAMIC+0x1a0>
    371e:	8b 40 10             	mov    0x10(%rax),%eax
    3721:	8b 55 e0             	mov    -0x20(%rbp),%edx
    3724:	4c 8d 05 5d 0f 00 00 	lea    0xf5d(%rip),%r8        # 4688 <_fini+0x670>
    372b:	89 d1                	mov    %edx,%ecx
    372d:	89 c2                	mov    %eax,%edx
    372f:	be 22 01 00 00       	mov    $0x122,%esi
    3734:	48 8d 3d 3e 0c 00 00 	lea    0xc3e(%rip),%rdi        # 4379 <_fini+0x361>
    373b:	b8 00 00 00 00       	mov    $0x0,%eax
    3740:	e8 43 dc ff ff       	callq  1388 <Socket_Log@plt>
    3745:	e9 98 02 00 00       	jmpq   39e2 <sckCltPool_putConnet+0x308>
    374a:	48 8b 45 c8          	mov    -0x38(%rbp),%rax
    374e:	48 89 45 e8          	mov    %rax,-0x18(%rbp)
    3752:	48 8b 45 e8          	mov    -0x18(%rbp),%rax
    3756:	48 05 b0 00 00 00    	add    $0xb0,%rax
    375c:	48 89 c7             	mov    %rax,%rdi
    375f:	e8 e4 dd ff ff       	callq  1548 <pthread_mutex_lock@plt>
    3764:	48 8b 45 e8          	mov    -0x18(%rbp),%rax
    3768:	8b 80 d8 00 00 00    	mov    0xd8(%rax),%eax
    376e:	83 f8 01             	cmp    $0x1,%eax
    3771:	75 67                	jne    37da <sckCltPool_putConnet+0x100>
    3773:	c7 45 e0 cd 0b 00 00 	movl   $0xbcd,-0x20(%rbp)
    377a:	48 8b 05 4f 1a 20 00 	mov    0x201a4f(%rip),%rax        # 2051d0 <_DYNAMIC+0x1a0>
    3781:	8b 40 10             	mov    0x10(%rax),%eax
    3784:	8b 55 e0             	mov    -0x20(%rbp),%edx
    3787:	4c 8d 05 4a 0f 00 00 	lea    0xf4a(%rip),%r8        # 46d8 <_fini+0x6c0>
    378e:	89 d1                	mov    %edx,%ecx
    3790:	89 c2                	mov    %eax,%edx
    3792:	be 2d 01 00 00       	mov    $0x12d,%esi
    3797:	48 8d 3d db 0b 00 00 	lea    0xbdb(%rip),%rdi        # 4379 <_fini+0x361>
    379e:	b8 00 00 00 00       	mov    $0x0,%eax
    37a3:	e8 e0 db ff ff       	callq  1388 <Socket_Log@plt>
    37a8:	48 8b 45 e8          	mov    -0x18(%rbp),%rax
    37ac:	48 8b 10             	mov    (%rax),%rdx
    37af:	48 8b 45 e8          	mov    -0x18(%rbp),%rax
    37b3:	8b 40 10             	mov    0x10(%rax),%eax
    37b6:	48 98                	cltq   
    37b8:	48 c1 e0 02          	shl    $0x2,%rax
    37bc:	48 01 c2             	add    %rax,%rdx
    37bf:	8b 45 c4             	mov    -0x3c(%rbp),%eax
    37c2:	89 02                	mov    %eax,(%rdx)
    37c4:	48 8b 45 e8          	mov    -0x18(%rbp),%rax
    37c8:	8b 40 10             	mov    0x10(%rax),%eax
    37cb:	8d 50 01             	lea    0x1(%rax),%edx
    37ce:	48 8b 45 e8          	mov    -0x18(%rbp),%rax
    37d2:	89 50 10             	mov    %edx,0x10(%rax)
    37d5:	e9 08 02 00 00       	jmpq   39e2 <sckCltPool_putConnet+0x308>
    37da:	c7 45 e4 00 00 00 00 	movl   $0x0,-0x1c(%rbp)
    37e1:	eb 59                	jmp    383c <sckCltPool_putConnet+0x162>
    37e3:	48 8b 45 e8          	mov    -0x18(%rbp),%rax
    37e7:	48 8b 00             	mov    (%rax),%rax
    37ea:	8b 55 e4             	mov    -0x1c(%rbp),%edx
    37ed:	48 63 d2             	movslq %edx,%rdx
    37f0:	48 c1 e2 02          	shl    $0x2,%rdx
    37f4:	48 01 d0             	add    %rdx,%rax
    37f7:	8b 00                	mov    (%rax),%eax
    37f9:	3b 45 c4             	cmp    -0x3c(%rbp),%eax
    37fc:	75 3a                	jne    3838 <sckCltPool_putConnet+0x15e>
    37fe:	c7 45 e0 ce 0b 00 00 	movl   $0xbce,-0x20(%rbp)
    3805:	48 8b 05 c4 19 20 00 	mov    0x2019c4(%rip),%rax        # 2051d0 <_DYNAMIC+0x1a0>
    380c:	8b 40 10             	mov    0x10(%rax),%eax
    380f:	8b 55 e0             	mov    -0x20(%rbp),%edx
    3812:	4c 8d 05 17 0f 00 00 	lea    0xf17(%rip),%r8        # 4730 <_fini+0x718>
    3819:	89 d1                	mov    %edx,%ecx
    381b:	89 c2                	mov    %eax,%edx
    381d:	be 39 01 00 00       	mov    $0x139,%esi
    3822:	48 8d 3d 50 0b 00 00 	lea    0xb50(%rip),%rdi        # 4379 <_fini+0x361>
    3829:	b8 00 00 00 00       	mov    $0x0,%eax
    382e:	e8 55 db ff ff       	callq  1388 <Socket_Log@plt>
    3833:	e9 aa 01 00 00       	jmpq   39e2 <sckCltPool_putConnet+0x308>
    3838:	83 45 e4 01          	addl   $0x1,-0x1c(%rbp)
    383c:	48 8b 45 e8          	mov    -0x18(%rbp),%rax
    3840:	8b 40 10             	mov    0x10(%rax),%eax
    3843:	3b 45 e4             	cmp    -0x1c(%rbp),%eax
    3846:	7f 9b                	jg     37e3 <sckCltPool_putConnet+0x109>
    3848:	48 8b 45 e8          	mov    -0x18(%rbp),%rax
    384c:	8b 50 10             	mov    0x10(%rax),%edx
    384f:	48 8b 45 e8          	mov    -0x18(%rbp),%rax
    3853:	8b 40 18             	mov    0x18(%rax),%eax
    3856:	39 c2                	cmp    %eax,%edx
    3858:	7c 3a                	jl     3894 <sckCltPool_putConnet+0x1ba>
    385a:	c7 45 e0 ce 0b 00 00 	movl   $0xbce,-0x20(%rbp)
    3861:	48 8b 05 68 19 20 00 	mov    0x201968(%rip),%rax        # 2051d0 <_DYNAMIC+0x1a0>
    3868:	8b 40 10             	mov    0x10(%rax),%eax
    386b:	8b 55 e0             	mov    -0x20(%rbp),%edx
    386e:	4c 8d 05 fb 0e 00 00 	lea    0xefb(%rip),%r8        # 4770 <_fini+0x758>
    3875:	89 d1                	mov    %edx,%ecx
    3877:	89 c2                	mov    %eax,%edx
    3879:	be 42 01 00 00       	mov    $0x142,%esi
    387e:	48 8d 3d f4 0a 00 00 	lea    0xaf4(%rip),%rdi        # 4379 <_fini+0x361>
    3885:	b8 00 00 00 00       	mov    $0x0,%eax
    388a:	e8 f9 da ff ff       	callq  1388 <Socket_Log@plt>
    388f:	e9 4e 01 00 00       	jmpq   39e2 <sckCltPool_putConnet+0x308>
    3894:	83 7d c0 01          	cmpl   $0x1,-0x40(%rbp)
    3898:	75 51                	jne    38eb <sckCltPool_putConnet+0x211>
    389a:	48 8b 45 e8          	mov    -0x18(%rbp),%rax
    389e:	48 8b 10             	mov    (%rax),%rdx
    38a1:	48 8b 45 e8          	mov    -0x18(%rbp),%rax
    38a5:	8b 40 10             	mov    0x10(%rax),%eax
    38a8:	48 98                	cltq   
    38aa:	48 c1 e0 02          	shl    $0x2,%rax
    38ae:	48 01 c2             	add    %rax,%rdx
    38b1:	8b 45 c4             	mov    -0x3c(%rbp),%eax
    38b4:	89 02                	mov    %eax,(%rdx)
    38b6:	48 8b 45 e8          	mov    -0x18(%rbp),%rax
    38ba:	48 8b 50 08          	mov    0x8(%rax),%rdx
    38be:	48 8b 45 e8          	mov    -0x18(%rbp),%rax
    38c2:	8b 40 10             	mov    0x10(%rax),%eax
    38c5:	48 98                	cltq   
    38c7:	48 c1 e0 02          	shl    $0x2,%rax
    38cb:	48 8d 04 02          	lea    (%rdx,%rax,1),%rax
    38cf:	c7 00 01 00 00 00    	movl   $0x1,(%rax)
    38d5:	48 8b 45 e8          	mov    -0x18(%rbp),%rax
    38d9:	8b 40 10             	mov    0x10(%rax),%eax
    38dc:	8d 50 01             	lea    0x1(%rax),%edx
    38df:	48 8b 45 e8          	mov    -0x18(%rbp),%rax
    38e3:	89 50 10             	mov    %edx,0x10(%rax)
    38e6:	e9 f7 00 00 00       	jmpq   39e2 <sckCltPool_putConnet+0x308>
    38eb:	c7 45 dc 00 00 00 00 	movl   $0x0,-0x24(%rbp)
    38f2:	8b 45 c4             	mov    -0x3c(%rbp),%eax
    38f5:	89 c7                	mov    %eax,%edi
    38f7:	e8 4c da ff ff       	callq  1348 <sckClient_closeconn@plt>
    38fc:	89 45 e0             	mov    %eax,-0x20(%rbp)
    38ff:	83 7d e0 00          	cmpl   $0x0,-0x20(%rbp)
    3903:	74 2e                	je     3933 <sckCltPool_putConnet+0x259>
    3905:	48 8b 05 c4 18 20 00 	mov    0x2018c4(%rip),%rax        # 2051d0 <_DYNAMIC+0x1a0>
    390c:	8b 40 10             	mov    0x10(%rax),%eax
    390f:	8b 55 e0             	mov    -0x20(%rbp),%edx
    3912:	4c 8d 05 9f 0e 00 00 	lea    0xe9f(%rip),%r8        # 47b8 <_fini+0x7a0>
    3919:	89 d1                	mov    %edx,%ecx
    391b:	89 c2                	mov    %eax,%edx
    391d:	be 54 01 00 00       	mov    $0x154,%esi
    3922:	48 8d 3d 50 0a 00 00 	lea    0xa50(%rip),%rdi        # 4379 <_fini+0x361>
    3929:	b8 00 00 00 00       	mov    $0x0,%eax
    392e:	e8 55 da ff ff       	callq  1388 <Socket_Log@plt>
    3933:	48 8b 45 e8          	mov    -0x18(%rbp),%rax
    3937:	8b 90 a0 00 00 00    	mov    0xa0(%rax),%edx
    393d:	48 8b 45 e8          	mov    -0x18(%rbp),%rax
    3941:	8b 80 9c 00 00 00    	mov    0x9c(%rax),%eax
    3947:	48 8b 4d e8          	mov    -0x18(%rbp),%rcx
    394b:	48 8d 59 1c          	lea    0x1c(%rcx),%rbx
    394f:	48 8d 4d dc          	lea    -0x24(%rbp),%rcx
    3953:	89 c6                	mov    %eax,%esi
    3955:	48 89 df             	mov    %rbx,%rdi
    3958:	e8 3b db ff ff       	callq  1498 <sckClient_connect@plt>
    395d:	89 45 e0             	mov    %eax,-0x20(%rbp)
    3960:	83 7d e0 00          	cmpl   $0x0,-0x20(%rbp)
    3964:	74 30                	je     3996 <sckCltPool_putConnet+0x2bc>
    3966:	48 8b 05 63 18 20 00 	mov    0x201863(%rip),%rax        # 2051d0 <_DYNAMIC+0x1a0>
    396d:	8b 40 10             	mov    0x10(%rax),%eax
    3970:	8b 55 e0             	mov    -0x20(%rbp),%edx
    3973:	4c 8d 05 86 0e 00 00 	lea    0xe86(%rip),%r8        # 4800 <_fini+0x7e8>
    397a:	89 d1                	mov    %edx,%ecx
    397c:	89 c2                	mov    %eax,%edx
    397e:	be 5c 01 00 00       	mov    $0x15c,%esi
    3983:	48 8d 3d ef 09 00 00 	lea    0x9ef(%rip),%rdi        # 4379 <_fini+0x361>
    398a:	b8 00 00 00 00       	mov    $0x0,%eax
    398f:	e8 f4 d9 ff ff       	callq  1388 <Socket_Log@plt>
    3994:	eb 4c                	jmp    39e2 <sckCltPool_putConnet+0x308>
    3996:	48 8b 45 e8          	mov    -0x18(%rbp),%rax
    399a:	48 8b 10             	mov    (%rax),%rdx
    399d:	48 8b 45 e8          	mov    -0x18(%rbp),%rax
    39a1:	8b 40 10             	mov    0x10(%rax),%eax
    39a4:	48 98                	cltq   
    39a6:	48 c1 e0 02          	shl    $0x2,%rax
    39aa:	48 01 c2             	add    %rax,%rdx
    39ad:	8b 45 dc             	mov    -0x24(%rbp),%eax
    39b0:	89 02                	mov    %eax,(%rdx)
    39b2:	48 8b 45 e8          	mov    -0x18(%rbp),%rax
    39b6:	48 8b 50 08          	mov    0x8(%rax),%rdx
    39ba:	48 8b 45 e8          	mov    -0x18(%rbp),%rax
    39be:	8b 40 10             	mov    0x10(%rax),%eax
    39c1:	48 98                	cltq   
    39c3:	48 c1 e0 02          	shl    $0x2,%rax
    39c7:	48 8d 04 02          	lea    (%rdx,%rax,1),%rax
    39cb:	c7 00 01 00 00 00    	movl   $0x1,(%rax)
    39d1:	48 8b 45 e8          	mov    -0x18(%rbp),%rax
    39d5:	8b 40 10             	mov    0x10(%rax),%eax
    39d8:	8d 50 01             	lea    0x1(%rax),%edx
    39db:	48 8b 45 e8          	mov    -0x18(%rbp),%rax
    39df:	89 50 10             	mov    %edx,0x10(%rax)
    39e2:	48 8b 45 e8          	mov    -0x18(%rbp),%rax
    39e6:	48 05 b0 00 00 00    	add    $0xb0,%rax
    39ec:	48 89 c7             	mov    %rax,%rdi
    39ef:	e8 b4 db ff ff       	callq  15a8 <pthread_mutex_unlock@plt>
    39f4:	8b 45 e0             	mov    -0x20(%rbp),%eax
    39f7:	48 83 c4 38          	add    $0x38,%rsp
    39fb:	5b                   	pop    %rbx
    39fc:	c9                   	leaveq 
    39fd:	c3                   	retq   

00000000000039fe <sckCltPool_destroy>:
    39fe:	55                   	push   %rbp
    39ff:	48 89 e5             	mov    %rsp,%rbp
    3a02:	48 83 ec 20          	sub    $0x20,%rsp
    3a06:	48 89 7d e8          	mov    %rdi,-0x18(%rbp)
    3a0a:	c7 45 f0 00 00 00 00 	movl   $0x0,-0x10(%rbp)
    3a11:	c7 45 f4 00 00 00 00 	movl   $0x0,-0xc(%rbp)
    3a18:	48 c7 45 f8 00 00 00 	movq   $0x0,-0x8(%rbp)
    3a1f:	00 
    3a20:	48 83 7d e8 00       	cmpq   $0x0,-0x18(%rbp)
    3a25:	75 3d                	jne    3a64 <sckCltPool_destroy+0x66>
    3a27:	c7 45 f0 b9 0b 00 00 	movl   $0xbb9,-0x10(%rbp)
    3a2e:	48 8b 05 9b 17 20 00 	mov    0x20179b(%rip),%rax        # 2051d0 <_DYNAMIC+0x1a0>
    3a35:	8b 40 10             	mov    0x10(%rax),%eax
    3a38:	8b 55 f0             	mov    -0x10(%rbp),%edx
    3a3b:	4c 8d 05 fe 0d 00 00 	lea    0xdfe(%rip),%r8        # 4840 <_fini+0x828>
    3a42:	89 d1                	mov    %edx,%ecx
    3a44:	89 c2                	mov    %eax,%edx
    3a46:	be 79 01 00 00       	mov    $0x179,%esi
    3a4b:	48 8d 3d 27 09 00 00 	lea    0x927(%rip),%rdi        # 4379 <_fini+0x361>
    3a52:	b8 00 00 00 00       	mov    $0x0,%eax
    3a57:	e8 2c d9 ff ff       	callq  1388 <Socket_Log@plt>
    3a5c:	8b 45 f0             	mov    -0x10(%rbp),%eax
    3a5f:	e9 f2 00 00 00       	jmpq   3b56 <sckCltPool_destroy+0x158>
    3a64:	48 8b 45 e8          	mov    -0x18(%rbp),%rax
    3a68:	48 89 45 f8          	mov    %rax,-0x8(%rbp)
    3a6c:	48 8b 45 f8          	mov    -0x8(%rbp),%rax
    3a70:	48 05 b0 00 00 00    	add    $0xb0,%rax
    3a76:	48 89 c7             	mov    %rax,%rdi
    3a79:	e8 ca da ff ff       	callq  1548 <pthread_mutex_lock@plt>
    3a7e:	48 8b 45 f8          	mov    -0x8(%rbp),%rax
    3a82:	c7 80 d8 00 00 00 01 	movl   $0x1,0xd8(%rax)
    3a89:	00 00 00 
    3a8c:	c7 45 f4 00 00 00 00 	movl   $0x0,-0xc(%rbp)
    3a93:	eb 3b                	jmp    3ad0 <sckCltPool_destroy+0xd2>
    3a95:	48 8b 45 f8          	mov    -0x8(%rbp),%rax
    3a99:	48 8b 00             	mov    (%rax),%rax
    3a9c:	8b 55 f4             	mov    -0xc(%rbp),%edx
    3a9f:	48 63 d2             	movslq %edx,%rdx
    3aa2:	48 c1 e2 02          	shl    $0x2,%rdx
    3aa6:	48 01 d0             	add    %rdx,%rax
    3aa9:	8b 00                	mov    (%rax),%eax
    3aab:	85 c0                	test   %eax,%eax
    3aad:	74 1d                	je     3acc <sckCltPool_destroy+0xce>
    3aaf:	48 8b 45 f8          	mov    -0x8(%rbp),%rax
    3ab3:	48 8b 00             	mov    (%rax),%rax
    3ab6:	8b 55 f4             	mov    -0xc(%rbp),%edx
    3ab9:	48 63 d2             	movslq %edx,%rdx
    3abc:	48 c1 e2 02          	shl    $0x2,%rdx
    3ac0:	48 01 d0             	add    %rdx,%rax
    3ac3:	8b 00                	mov    (%rax),%eax
    3ac5:	89 c7                	mov    %eax,%edi
    3ac7:	e8 7c d8 ff ff       	callq  1348 <sckClient_closeconn@plt>
    3acc:	83 45 f4 01          	addl   $0x1,-0xc(%rbp)
    3ad0:	48 8b 45 f8          	mov    -0x8(%rbp),%rax
    3ad4:	8b 40 18             	mov    0x18(%rax),%eax
    3ad7:	3b 45 f4             	cmp    -0xc(%rbp),%eax
    3ada:	7f b9                	jg     3a95 <sckCltPool_destroy+0x97>
    3adc:	48 8b 45 f8          	mov    -0x8(%rbp),%rax
    3ae0:	48 8b 00             	mov    (%rax),%rax
    3ae3:	48 85 c0             	test   %rax,%rax
    3ae6:	74 1a                	je     3b02 <sckCltPool_destroy+0x104>
    3ae8:	48 8b 45 f8          	mov    -0x8(%rbp),%rax
    3aec:	48 8b 00             	mov    (%rax),%rax
    3aef:	48 89 c7             	mov    %rax,%rdi
    3af2:	e8 d1 d8 ff ff       	callq  13c8 <free@plt>
    3af7:	48 8b 45 f8          	mov    -0x8(%rbp),%rax
    3afb:	48 c7 00 00 00 00 00 	movq   $0x0,(%rax)
    3b02:	48 8b 45 f8          	mov    -0x8(%rbp),%rax
    3b06:	48 8b 40 08          	mov    0x8(%rax),%rax
    3b0a:	48 85 c0             	test   %rax,%rax
    3b0d:	74 1c                	je     3b2b <sckCltPool_destroy+0x12d>
    3b0f:	48 8b 45 f8          	mov    -0x8(%rbp),%rax
    3b13:	48 8b 40 08          	mov    0x8(%rax),%rax
    3b17:	48 89 c7             	mov    %rax,%rdi
    3b1a:	e8 a9 d8 ff ff       	callq  13c8 <free@plt>
    3b1f:	48 8b 45 f8          	mov    -0x8(%rbp),%rax
    3b23:	48 c7 40 08 00 00 00 	movq   $0x0,0x8(%rax)
    3b2a:	00 
    3b2b:	b8 00 00 00 00       	mov    $0x0,%eax
    3b30:	e8 d3 da ff ff       	callq  1608 <sckClient_destroy@plt>
    3b35:	48 8b 45 f8          	mov    -0x8(%rbp),%rax
    3b39:	48 05 b0 00 00 00    	add    $0xb0,%rax
    3b3f:	48 89 c7             	mov    %rax,%rdi
    3b42:	e8 61 da ff ff       	callq  15a8 <pthread_mutex_unlock@plt>
    3b47:	48 8b 45 f8          	mov    -0x8(%rbp),%rax
    3b4b:	48 89 c7             	mov    %rax,%rdi
    3b4e:	e8 75 d8 ff ff       	callq  13c8 <free@plt>
    3b53:	8b 45 f0             	mov    -0x10(%rbp),%eax
    3b56:	c9                   	leaveq 
    3b57:	c3                   	retq   

0000000000003b58 <ITCAST_Error_GetCurTime>:
    3b58:	55                   	push   %rbp
    3b59:	48 89 e5             	mov    %rsp,%rbp
    3b5c:	48 83 ec 30          	sub    $0x30,%rsp
    3b60:	48 89 7d d8          	mov    %rdi,-0x28(%rbp)
    3b64:	48 c7 45 f0 00 00 00 	movq   $0x0,-0x10(%rbp)
    3b6b:	00 
    3b6c:	48 c7 45 f8 00 00 00 	movq   $0x0,-0x8(%rbp)
    3b73:	00 
    3b74:	48 c7 45 e8 00 00 00 	movq   $0x0,-0x18(%rbp)
    3b7b:	00 
    3b7c:	bf 00 00 00 00       	mov    $0x0,%edi
    3b81:	e8 62 da ff ff       	callq  15e8 <time@plt>
    3b86:	48 89 45 e8          	mov    %rax,-0x18(%rbp)
    3b8a:	48 8d 45 e8          	lea    -0x18(%rbp),%rax
    3b8e:	48 89 c7             	mov    %rax,%rdi
    3b91:	e8 c2 d9 ff ff       	callq  1558 <localtime@plt>
    3b96:	48 89 45 f0          	mov    %rax,-0x10(%rbp)
    3b9a:	48 8b 4d f0          	mov    -0x10(%rbp),%rcx
    3b9e:	48 8d 15 d2 0c 00 00 	lea    0xcd2(%rip),%rdx        # 4877 <_fini+0x85f>
    3ba5:	48 8b 45 d8          	mov    -0x28(%rbp),%rax
    3ba9:	be 21 00 00 00       	mov    $0x21,%esi
    3bae:	48 89 c7             	mov    %rax,%rdi
    3bb1:	e8 d2 d9 ff ff       	callq  1588 <strftime@plt>
    3bb6:	48 89 45 f8          	mov    %rax,-0x8(%rbp)
    3bba:	48 8b 45 f8          	mov    -0x8(%rbp),%rax
    3bbe:	c9                   	leaveq 
    3bbf:	c3                   	retq   

0000000000003bc0 <ITCAST_Error_OpenFile>:
    3bc0:	55                   	push   %rbp
    3bc1:	48 89 e5             	mov    %rsp,%rbp
    3bc4:	53                   	push   %rbx
    3bc5:	48 81 ec 18 04 00 00 	sub    $0x418,%rsp
    3bcc:	48 89 bd e8 fb ff ff 	mov    %rdi,-0x418(%rbp)
    3bd3:	48 8d 85 f0 fb ff ff 	lea    -0x410(%rbp),%rax
    3bda:	ba 00 04 00 00       	mov    $0x400,%edx
    3bdf:	be 00 00 00 00       	mov    $0x0,%esi
    3be4:	48 89 c7             	mov    %rax,%rdi
    3be7:	e8 1c d7 ff ff       	callq  1308 <memset@plt>
    3bec:	48 8d 3d 96 0c 00 00 	lea    0xc96(%rip),%rdi        # 4889 <_fini+0x871>
    3bf3:	e8 d0 d8 ff ff       	callq  14c8 <getenv@plt>
    3bf8:	48 89 c2             	mov    %rax,%rdx
    3bfb:	48 8d 1d 8c 0c 00 00 	lea    0xc8c(%rip),%rbx        # 488e <_fini+0x876>
    3c02:	48 8d 85 f0 fb ff ff 	lea    -0x410(%rbp),%rax
    3c09:	48 8d 0d 88 0c 00 00 	lea    0xc88(%rip),%rcx        # 4898 <_fini+0x880>
    3c10:	48 89 de             	mov    %rbx,%rsi
    3c13:	48 89 c7             	mov    %rax,%rdi
    3c16:	b8 00 00 00 00       	mov    $0x0,%eax
    3c1b:	e8 18 d8 ff ff       	callq  1438 <sprintf@plt>
    3c20:	48 8d 85 f0 fb ff ff 	lea    -0x410(%rbp),%rax
    3c27:	ba b6 01 00 00       	mov    $0x1b6,%edx
    3c2c:	be 41 04 00 00       	mov    $0x441,%esi
    3c31:	48 89 c7             	mov    %rax,%rdi
    3c34:	b8 00 00 00 00       	mov    $0x0,%eax
    3c39:	e8 9a d9 ff ff       	callq  15d8 <open@plt>
    3c3e:	48 8b 95 e8 fb ff ff 	mov    -0x418(%rbp),%rdx
    3c45:	89 02                	mov    %eax,(%rdx)
    3c47:	48 8b 85 e8 fb ff ff 	mov    -0x418(%rbp),%rax
    3c4e:	8b 00                	mov    (%rax),%eax
    3c50:	85 c0                	test   %eax,%eax
    3c52:	79 07                	jns    3c5b <ITCAST_Error_OpenFile+0x9b>
    3c54:	b8 ff ff ff ff       	mov    $0xffffffff,%eax
    3c59:	eb 05                	jmp    3c60 <ITCAST_Error_OpenFile+0xa0>
    3c5b:	b8 00 00 00 00       	mov    $0x0,%eax
    3c60:	48 81 c4 18 04 00 00 	add    $0x418,%rsp
    3c67:	5b                   	pop    %rbx
    3c68:	c9                   	leaveq 
    3c69:	c3                   	retq   

0000000000003c6a <ITCAST_Error_Core>:
    3c6a:	55                   	push   %rbp
    3c6b:	48 89 e5             	mov    %rsp,%rbp
    3c6e:	53                   	push   %rbx
    3c6f:	48 81 ec 98 28 00 00 	sub    $0x2898,%rsp
    3c76:	48 89 bd 88 d7 ff ff 	mov    %rdi,-0x2878(%rbp)
    3c7d:	89 b5 84 d7 ff ff    	mov    %esi,-0x287c(%rbp)
    3c83:	89 95 80 d7 ff ff    	mov    %edx,-0x2880(%rbp)
    3c89:	89 8d 7c d7 ff ff    	mov    %ecx,-0x2884(%rbp)
    3c8f:	4c 89 85 70 d7 ff ff 	mov    %r8,-0x2890(%rbp)
    3c96:	4c 89 8d 68 d7 ff ff 	mov    %r9,-0x2898(%rbp)
    3c9d:	c7 45 e8 00 00 00 00 	movl   $0x0,-0x18(%rbp)
    3ca4:	c7 45 ec 00 00 00 00 	movl   $0x0,-0x14(%rbp)
    3cab:	c7 85 9c d7 ff ff 00 	movl   $0x0,-0x2864(%rbp)
    3cb2:	00 00 00 
    3cb5:	48 8d 85 e0 d7 ff ff 	lea    -0x2820(%rbp),%rax
    3cbc:	ba 00 28 00 00       	mov    $0x2800,%edx
    3cc1:	be 00 00 00 00       	mov    $0x0,%esi
    3cc6:	48 89 c7             	mov    %rax,%rdi
    3cc9:	e8 3a d6 ff ff       	callq  1308 <memset@plt>
    3cce:	48 8d 85 a0 d7 ff ff 	lea    -0x2860(%rbp),%rax
    3cd5:	ba 40 00 00 00       	mov    $0x40,%edx
    3cda:	be 00 00 00 00       	mov    $0x0,%esi
    3cdf:	48 89 c7             	mov    %rax,%rdi
    3ce2:	e8 21 d6 ff ff       	callq  1308 <memset@plt>
    3ce7:	48 8d 85 a0 d7 ff ff 	lea    -0x2860(%rbp),%rax
    3cee:	48 89 c7             	mov    %rax,%rdi
    3cf1:	e8 62 fe ff ff       	callq  3b58 <ITCAST_Error_GetCurTime>
    3cf6:	89 45 ec             	mov    %eax,-0x14(%rbp)
    3cf9:	48 8d 0d a6 0b 00 00 	lea    0xba6(%rip),%rcx        # 48a6 <_fini+0x88e>
    3d00:	48 8d 95 a0 d7 ff ff 	lea    -0x2860(%rbp),%rdx
    3d07:	48 8d 85 e0 d7 ff ff 	lea    -0x2820(%rbp),%rax
    3d0e:	48 89 ce             	mov    %rcx,%rsi
    3d11:	48 89 c7             	mov    %rax,%rdi
    3d14:	b8 00 00 00 00       	mov    $0x0,%eax
    3d19:	e8 1a d7 ff ff       	callq  1438 <sprintf@plt>
    3d1e:	89 45 ec             	mov    %eax,-0x14(%rbp)
    3d21:	8b 45 ec             	mov    -0x14(%rbp),%eax
    3d24:	89 45 e8             	mov    %eax,-0x18(%rbp)
    3d27:	48 8b 05 9a 14 20 00 	mov    0x20149a(%rip),%rax        # 2051c8 <_DYNAMIC+0x198>
    3d2e:	48 89 c1             	mov    %rax,%rcx
    3d31:	8b 85 80 d7 ff ff    	mov    -0x2880(%rbp),%eax
    3d37:	48 63 d0             	movslq %eax,%rdx
    3d3a:	48 89 d0             	mov    %rdx,%rax
    3d3d:	48 c1 e0 02          	shl    $0x2,%rax
    3d41:	48 01 d0             	add    %rdx,%rax
    3d44:	48 01 c0             	add    %rax,%rax
    3d47:	48 8d 14 01          	lea    (%rcx,%rax,1),%rdx
    3d4b:	48 8d 0d 54 0b 00 00 	lea    0xb54(%rip),%rcx        # 48a6 <_fini+0x88e>
    3d52:	8b 45 e8             	mov    -0x18(%rbp),%eax
    3d55:	48 63 d8             	movslq %eax,%rbx
    3d58:	48 8d 85 e0 d7 ff ff 	lea    -0x2820(%rbp),%rax
    3d5f:	48 01 d8             	add    %rbx,%rax
    3d62:	48 89 ce             	mov    %rcx,%rsi
    3d65:	48 89 c7             	mov    %rax,%rdi
    3d68:	b8 00 00 00 00       	mov    $0x0,%eax
    3d6d:	e8 c6 d6 ff ff       	callq  1438 <sprintf@plt>
    3d72:	89 45 ec             	mov    %eax,-0x14(%rbp)
    3d75:	8b 45 ec             	mov    -0x14(%rbp),%eax
    3d78:	01 45 e8             	add    %eax,-0x18(%rbp)
    3d7b:	83 bd 7c d7 ff ff 00 	cmpl   $0x0,-0x2884(%rbp)
    3d82:	74 32                	je     3db6 <ITCAST_Error_Core+0x14c>
    3d84:	48 8d 0d 21 0b 00 00 	lea    0xb21(%rip),%rcx        # 48ac <_fini+0x894>
    3d8b:	8b 45 e8             	mov    -0x18(%rbp),%eax
    3d8e:	48 63 d0             	movslq %eax,%rdx
    3d91:	48 8d 85 e0 d7 ff ff 	lea    -0x2820(%rbp),%rax
    3d98:	48 01 d0             	add    %rdx,%rax
    3d9b:	8b 95 7c d7 ff ff    	mov    -0x2884(%rbp),%edx
    3da1:	48 89 ce             	mov    %rcx,%rsi
    3da4:	48 89 c7             	mov    %rax,%rdi
    3da7:	b8 00 00 00 00       	mov    $0x0,%eax
    3dac:	e8 87 d6 ff ff       	callq  1438 <sprintf@plt>
    3db1:	89 45 ec             	mov    %eax,-0x14(%rbp)
    3db4:	eb 2e                	jmp    3de4 <ITCAST_Error_Core+0x17a>
    3db6:	48 8d 0d fe 0a 00 00 	lea    0xafe(%rip),%rcx        # 48bb <_fini+0x8a3>
    3dbd:	8b 45 e8             	mov    -0x18(%rbp),%eax
    3dc0:	48 63 d0             	movslq %eax,%rdx
    3dc3:	48 8d 85 e0 d7 ff ff 	lea    -0x2820(%rbp),%rax
    3dca:	48 01 d0             	add    %rdx,%rax
    3dcd:	ba 0b 00 00 00       	mov    $0xb,%edx
    3dd2:	48 89 ce             	mov    %rcx,%rsi
    3dd5:	48 89 c7             	mov    %rax,%rdi
    3dd8:	e8 cb d6 ff ff       	callq  14a8 <memcpy@plt>
    3ddd:	c7 45 ec 0a 00 00 00 	movl   $0xa,-0x14(%rbp)
    3de4:	8b 45 ec             	mov    -0x14(%rbp),%eax
    3de7:	01 45 e8             	add    %eax,-0x18(%rbp)
    3dea:	8b 45 e8             	mov    -0x18(%rbp),%eax
    3ded:	48 63 d0             	movslq %eax,%rdx
    3df0:	48 8d 85 e0 d7 ff ff 	lea    -0x2820(%rbp),%rax
    3df7:	48 01 d0             	add    %rdx,%rax
    3dfa:	48 8b 95 68 d7 ff ff 	mov    -0x2898(%rbp),%rdx
    3e01:	48 8b 8d 70 d7 ff ff 	mov    -0x2890(%rbp),%rcx
    3e08:	48 89 ce             	mov    %rcx,%rsi
    3e0b:	48 89 c7             	mov    %rax,%rdi
    3e0e:	e8 d5 d5 ff ff       	callq  13e8 <vsprintf@plt>
    3e13:	89 45 ec             	mov    %eax,-0x14(%rbp)
    3e16:	8b 45 ec             	mov    -0x14(%rbp),%eax
    3e19:	01 45 e8             	add    %eax,-0x18(%rbp)
    3e1c:	48 8d 0d a3 0a 00 00 	lea    0xaa3(%rip),%rcx        # 48c6 <_fini+0x8ae>
    3e23:	8b 45 e8             	mov    -0x18(%rbp),%eax
    3e26:	48 63 d0             	movslq %eax,%rdx
    3e29:	48 8d 85 e0 d7 ff ff 	lea    -0x2820(%rbp),%rax
    3e30:	48 01 d0             	add    %rdx,%rax
    3e33:	48 8b 95 88 d7 ff ff 	mov    -0x2878(%rbp),%rdx
    3e3a:	48 89 ce             	mov    %rcx,%rsi
    3e3d:	48 89 c7             	mov    %rax,%rdi
    3e40:	b8 00 00 00 00       	mov    $0x0,%eax
    3e45:	e8 ee d5 ff ff       	callq  1438 <sprintf@plt>
    3e4a:	89 45 ec             	mov    %eax,-0x14(%rbp)
    3e4d:	8b 45 ec             	mov    -0x14(%rbp),%eax
    3e50:	01 45 e8             	add    %eax,-0x18(%rbp)
    3e53:	48 8d 0d 72 0a 00 00 	lea    0xa72(%rip),%rcx        # 48cc <_fini+0x8b4>
    3e5a:	8b 45 e8             	mov    -0x18(%rbp),%eax
    3e5d:	48 63 d0             	movslq %eax,%rdx
    3e60:	48 8d 85 e0 d7 ff ff 	lea    -0x2820(%rbp),%rax
    3e67:	48 01 d0             	add    %rdx,%rax
    3e6a:	8b 95 84 d7 ff ff    	mov    -0x287c(%rbp),%edx
    3e70:	48 89 ce             	mov    %rcx,%rsi
    3e73:	48 89 c7             	mov    %rax,%rdi
    3e76:	b8 00 00 00 00       	mov    $0x0,%eax
    3e7b:	e8 b8 d5 ff ff       	callq  1438 <sprintf@plt>
    3e80:	89 45 ec             	mov    %eax,-0x14(%rbp)
    3e83:	8b 45 ec             	mov    -0x14(%rbp),%eax
    3e86:	01 45 e8             	add    %eax,-0x18(%rbp)
    3e89:	48 8d 85 9c d7 ff ff 	lea    -0x2864(%rbp),%rax
    3e90:	48 89 c7             	mov    %rax,%rdi
    3e93:	e8 28 fd ff ff       	callq  3bc0 <ITCAST_Error_OpenFile>
    3e98:	85 c0                	test   %eax,%eax
    3e9a:	75 34                	jne    3ed0 <ITCAST_Error_Core+0x266>
    3e9c:	8b 85 9c d7 ff ff    	mov    -0x2864(%rbp),%eax
    3ea2:	8b 55 e8             	mov    -0x18(%rbp),%edx
    3ea5:	48 8d 8d e0 d7 ff ff 	lea    -0x2820(%rbp),%rcx
    3eac:	48 89 ce             	mov    %rcx,%rsi
    3eaf:	89 c7                	mov    %eax,%edi
    3eb1:	b8 00 00 00 00       	mov    $0x0,%eax
    3eb6:	e8 ad d6 ff ff       	callq  1568 <write@plt>
    3ebb:	8b 85 9c d7 ff ff    	mov    -0x2864(%rbp),%eax
    3ec1:	89 c7                	mov    %eax,%edi
    3ec3:	b8 00 00 00 00       	mov    $0x0,%eax
    3ec8:	e8 4b d4 ff ff       	callq  1318 <close@plt>
    3ecd:	90                   	nop
    3ece:	eb 01                	jmp    3ed1 <ITCAST_Error_Core+0x267>
    3ed0:	90                   	nop
    3ed1:	48 81 c4 98 28 00 00 	add    $0x2898,%rsp
    3ed8:	5b                   	pop    %rbx
    3ed9:	c9                   	leaveq 
    3eda:	c3                   	retq   

0000000000003edb <Socket_Log>:
    3edb:	55                   	push   %rbp
    3edc:	48 89 e5             	mov    %rsp,%rbp
    3edf:	53                   	push   %rbx
    3ee0:	48 81 ec f8 00 00 00 	sub    $0xf8,%rsp
    3ee7:	48 89 bd 18 ff ff ff 	mov    %rdi,-0xe8(%rbp)
    3eee:	89 b5 14 ff ff ff    	mov    %esi,-0xec(%rbp)
    3ef4:	89 95 10 ff ff ff    	mov    %edx,-0xf0(%rbp)
    3efa:	89 8d 0c ff ff ff    	mov    %ecx,-0xf4(%rbp)
    3f00:	4c 89 8d 68 ff ff ff 	mov    %r9,-0x98(%rbp)
    3f07:	0f b6 c0             	movzbl %al,%eax
    3f0a:	48 8d 14 85 00 00 00 	lea    0x0(,%rax,4),%rdx
    3f11:	00 
    3f12:	48 8d 05 29 00 00 00 	lea    0x29(%rip),%rax        # 3f42 <Socket_Log+0x67>
    3f19:	48 29 d0             	sub    %rdx,%rax
    3f1c:	48 8d 55 ef          	lea    -0x11(%rbp),%rdx
    3f20:	ff e0                	jmpq   *%rax
    3f22:	0f 29 7a f1          	movaps %xmm7,-0xf(%rdx)
    3f26:	0f 29 72 e1          	movaps %xmm6,-0x1f(%rdx)
    3f2a:	0f 29 6a d1          	movaps %xmm5,-0x2f(%rdx)
    3f2e:	0f 29 62 c1          	movaps %xmm4,-0x3f(%rdx)
    3f32:	0f 29 5a b1          	movaps %xmm3,-0x4f(%rdx)
    3f36:	0f 29 52 a1          	movaps %xmm2,-0x5f(%rdx)
    3f3a:	0f 29 4a 91          	movaps %xmm1,-0x6f(%rdx)
    3f3e:	0f 29 42 81          	movaps %xmm0,-0x7f(%rdx)
    3f42:	4c 89 85 00 ff ff ff 	mov    %r8,-0x100(%rbp)
    3f49:	83 bd 10 ff ff ff 00 	cmpl   $0x0,-0xf0(%rbp)
    3f50:	74 76                	je     3fc8 <Socket_Log+0xed>
    3f52:	48 8d 85 20 ff ff ff 	lea    -0xe0(%rbp),%rax
    3f59:	c7 00 28 00 00 00    	movl   $0x28,(%rax)
    3f5f:	48 8d 85 20 ff ff ff 	lea    -0xe0(%rbp),%rax
    3f66:	c7 40 04 30 00 00 00 	movl   $0x30,0x4(%rax)
    3f6d:	48 8d 85 20 ff ff ff 	lea    -0xe0(%rbp),%rax
    3f74:	48 8d 55 10          	lea    0x10(%rbp),%rdx
    3f78:	48 89 50 08          	mov    %rdx,0x8(%rax)
    3f7c:	48 8d 85 20 ff ff ff 	lea    -0xe0(%rbp),%rax
    3f83:	48 8d 95 40 ff ff ff 	lea    -0xc0(%rbp),%rdx
    3f8a:	48 89 50 10          	mov    %rdx,0x10(%rax)
    3f8e:	48 8d bd 20 ff ff ff 	lea    -0xe0(%rbp),%rdi
    3f95:	48 8b b5 00 ff ff ff 	mov    -0x100(%rbp),%rsi
    3f9c:	8b 8d 0c ff ff ff    	mov    -0xf4(%rbp),%ecx
    3fa2:	8b 95 10 ff ff ff    	mov    -0xf0(%rbp),%edx
    3fa8:	8b 9d 14 ff ff ff    	mov    -0xec(%rbp),%ebx
    3fae:	48 8b 85 18 ff ff ff 	mov    -0xe8(%rbp),%rax
    3fb5:	49 89 f9             	mov    %rdi,%r9
    3fb8:	49 89 f0             	mov    %rsi,%r8
    3fbb:	89 de                	mov    %ebx,%esi
    3fbd:	48 89 c7             	mov    %rax,%rdi
    3fc0:	e8 a5 fc ff ff       	callq  3c6a <ITCAST_Error_Core>
    3fc5:	90                   	nop
    3fc6:	eb 01                	jmp    3fc9 <Socket_Log+0xee>
    3fc8:	90                   	nop
    3fc9:	48 81 c4 f8 00 00 00 	add    $0xf8,%rsp
    3fd0:	5b                   	pop    %rbx
    3fd1:	c9                   	leaveq 
    3fd2:	c3                   	retq   
    3fd3:	90                   	nop
    3fd4:	90                   	nop
    3fd5:	90                   	nop
    3fd6:	90                   	nop
    3fd7:	90                   	nop
    3fd8:	90                   	nop
    3fd9:	90                   	nop
    3fda:	90                   	nop
    3fdb:	90                   	nop
    3fdc:	90                   	nop
    3fdd:	90                   	nop
    3fde:	90                   	nop
    3fdf:	90                   	nop

0000000000003fe0 <__do_global_ctors_aux>:
    3fe0:	55                   	push   %rbp
    3fe1:	48 89 e5             	mov    %rsp,%rbp
    3fe4:	53                   	push   %rbx
    3fe5:	48 83 ec 08          	sub    $0x8,%rsp
    3fe9:	48 8b 05 10 10 20 00 	mov    0x201010(%rip),%rax        # 205000 <__CTOR_LIST__>
    3ff0:	48 83 f8 ff          	cmp    $0xffffffffffffffff,%rax
    3ff4:	74 19                	je     400f <__do_global_ctors_aux+0x2f>
    3ff6:	48 8d 1d 03 10 20 00 	lea    0x201003(%rip),%rbx        # 205000 <__CTOR_LIST__>
    3ffd:	0f 1f 00             	nopl   (%rax)
    4000:	48 83 eb 08          	sub    $0x8,%rbx
    4004:	ff d0                	callq  *%rax
    4006:	48 8b 03             	mov    (%rbx),%rax
    4009:	48 83 f8 ff          	cmp    $0xffffffffffffffff,%rax
    400d:	75 f1                	jne    4000 <__do_global_ctors_aux+0x20>
    400f:	48 83 c4 08          	add    $0x8,%rsp
    4013:	5b                   	pop    %rbx
    4014:	c9                   	leaveq 
    4015:	c3                   	retq   
    4016:	90                   	nop
    4017:	90                   	nop

Disassembly of section .fini:

0000000000004018 <_fini>:
    4018:	48 83 ec 08          	sub    $0x8,%rsp
    401c:	e8 1f d6 ff ff       	callq  1640 <__do_global_dtors_aux>
    4021:	48 83 c4 08          	add    $0x8,%rsp
    4025:	c3                   	retq   
